ARM GAS  C:\Users\labview\AppData\Local\Temp\ccEyZc3f.s 			page 1


   1              		.syntax unified
   2              		.cpu cortex-m0
   3              		.fpu softvfp
   4              		.eabi_attribute 20, 1
   5              		.eabi_attribute 21, 1
   6              		.eabi_attribute 23, 3
   7              		.eabi_attribute 24, 1
   8              		.eabi_attribute 25, 1
   9              		.eabi_attribute 26, 1
  10              		.eabi_attribute 30, 1
  11              		.eabi_attribute 34, 0
  12              		.eabi_attribute 18, 4
  13              		.thumb
  14              		.syntax unified
  15              		.file	"BME280.c"
  16              		.text
  17              	.Ltext0:
  18              		.cfi_sections	.debug_frame
  19              		.section	.text.BME280_WriteReg,"ax",%progbits
  20              		.align	2
  21              		.global	BME280_WriteReg
  22              		.code	16
  23              		.thumb_func
  24              		.type	BME280_WriteReg, %function
  25              	BME280_WriteReg:
  26              	.LFB34:
  27              		.file 1 "BME280.c"
   1:BME280.c      **** #include "BME280.h"
   2:BME280.c      **** #include "project.h"
   3:BME280.c      **** 
   4:BME280.c      **** /* Fonction    : BME280_WriteReg
   5:BME280.c      **** ** But         : Ecrire une commande dans un registre
   6:BME280.c      **** ** Entrée      : WriteAddr (adresse du registre), WriteData (donnée à écrire)
   7:BME280.c      **** ** Sortie      : None
   8:BME280.c      **** ** Usage       : BME280_WriteReg(WriteAddr, WriteData);
   9:BME280.c      **** */
  10:BME280.c      **** void BME280_WriteReg(uint8 WriteAddr, uint8 WriteData) {
  28              		.loc 1 10 0
  29              		.cfi_startproc
  30              		@ args = 0, pretend = 0, frame = 8
  31              		@ frame_needed = 0, uses_anonymous_args = 0
  32              	.LVL0:
  33 0000 10B5     		push	{r4, lr}
  34              		.cfi_def_cfa_offset 8
  35              		.cfi_offset 4, -8
  36              		.cfi_offset 14, -4
  37 0002 82B0     		sub	sp, sp, #8
  38              		.cfi_def_cfa_offset 16
  11:BME280.c      ****     uint8 writeBuf[2] = {0};
  39              		.loc 1 11 0
  40 0004 01AC     		add	r4, sp, #4
  12:BME280.c      ****     writeBuf[0] = WriteAddr;  // Adresse du registre
  41              		.loc 1 12 0
  42 0006 2070     		strb	r0, [r4]
  13:BME280.c      ****     writeBuf[1] = WriteData;  // Donnée à écrire dans le registre
  43              		.loc 1 13 0
  44 0008 6170     		strb	r1, [r4, #1]
ARM GAS  C:\Users\labview\AppData\Local\Temp\ccEyZc3f.s 			page 2


  14:BME280.c      ****     I2C_I2CMasterWriteBuf(ADR_SLAVE, (uint8 *)&writeBuf, sizeof(writeBuf), I2C_I2C_MODE_COMPLETE_XF
  45              		.loc 1 14 0
  46 000a 0023     		movs	r3, #0
  47 000c 0222     		movs	r2, #2
  48 000e 2100     		movs	r1, r4
  49              	.LVL1:
  50 0010 7620     		movs	r0, #118
  51              	.LVL2:
  52 0012 FFF7FEFF 		bl	I2C_I2CMasterWriteBuf
  53              	.LVL3:
  54              	.L2:
  15:BME280.c      ****     while ((I2C_I2CMasterStatus() & I2C_I2C_MSTAT_WR_CMPLT) == 0) {}  // Attendre la fin de l'écri
  55              		.loc 1 15 0 discriminator 1
  56 0016 FFF7FEFF 		bl	I2C_I2CMasterStatus
  57              	.LVL4:
  58 001a 8307     		lsls	r3, r0, #30
  59 001c FBD5     		bpl	.L2
  16:BME280.c      ****     I2C_I2CMasterClearStatus();  // Effacer le statut de l'I2C
  60              		.loc 1 16 0
  61 001e FFF7FEFF 		bl	I2C_I2CMasterClearStatus
  62              	.LVL5:
  17:BME280.c      **** }
  63              		.loc 1 17 0
  64 0022 02B0     		add	sp, sp, #8
  65              		@ sp needed
  66 0024 10BD     		pop	{r4, pc}
  67              		.cfi_endproc
  68              	.LFE34:
  69              		.size	BME280_WriteReg, .-BME280_WriteReg
  70 0026 C046     		.section	.text.BME280_ReadReg,"ax",%progbits
  71              		.align	2
  72              		.global	BME280_ReadReg
  73              		.code	16
  74              		.thumb_func
  75              		.type	BME280_ReadReg, %function
  76              	BME280_ReadReg:
  77              	.LFB35:
  18:BME280.c      **** 
  19:BME280.c      **** /* Fonction  : BME280_ReadReg
  20:BME280.c      **** ** But       : Lire les informations d'un registre
  21:BME280.c      **** ** Entrée    : ReadAddr (adresse du registre)
  22:BME280.c      **** ** Sortie    : ReadData (donnée lue)
  23:BME280.c      **** ** Usage     : ReadData = BME280_ReadReg(ReadAddr);
  24:BME280.c      **** */
  25:BME280.c      **** uint8_t BME280_ReadReg(uint8_t ReadAddr) {
  78              		.loc 1 25 0
  79              		.cfi_startproc
  80              		@ args = 0, pretend = 0, frame = 0
  81              		@ frame_needed = 0, uses_anonymous_args = 0
  82              	.LVL6:
  83 0000 10B5     		push	{r4, lr}
  84              		.cfi_def_cfa_offset 8
  85              		.cfi_offset 4, -8
  86              		.cfi_offset 14, -4
  87 0002 0400     		movs	r4, r0
  26:BME280.c      ****     uint8 ReadData;
  27:BME280.c      ****     /* =======================================  
ARM GAS  C:\Users\labview\AppData\Local\Temp\ccEyZc3f.s 			page 3


  28:BME280.c      ****     Code à compléter ici
  29:BME280.c      ****     =========================================*/
  30:BME280.c      ****     
  31:BME280.c      ****     uint8 readBuf[2] = {0};
  32:BME280.c      ****     readBuf[0] = ReadAddr;  // Adresse du registre à lire
  33:BME280.c      ****     readBuf[1] = ReadData;  // Variable pour stocker la donnée lue
  34:BME280.c      ****     
  35:BME280.c      ****     uint8_t valeur;
  36:BME280.c      ****     I2C_I2CMasterSendStart(ADR_SLAVE, I2C_I2C_WRITE_XFER_MODE);  // Démarrer la communication I2C 
  88              		.loc 1 36 0
  89 0004 0021     		movs	r1, #0
  90 0006 7620     		movs	r0, #118
  91              	.LVL7:
  92 0008 FFF7FEFF 		bl	I2C_I2CMasterSendStart
  93              	.LVL8:
  37:BME280.c      ****     I2C_I2CMasterWriteByte(ReadAddr);  // Envoyer l'adresse du registre à lire
  94              		.loc 1 37 0
  95 000c 2000     		movs	r0, r4
  96 000e FFF7FEFF 		bl	I2C_I2CMasterWriteByte
  97              	.LVL9:
  38:BME280.c      ****     I2C_I2CMasterSendRestart(ADR_SLAVE, I2C_I2C_READ_XFER_MODE);  // Redémarrer la communication e
  98              		.loc 1 38 0
  99 0012 0121     		movs	r1, #1
 100 0014 7620     		movs	r0, #118
 101 0016 FFF7FEFF 		bl	I2C_I2CMasterSendRestart
 102              	.LVL10:
  39:BME280.c      ****     valeur = I2C_I2CMasterReadByte(I2C_I2C_NAK_DATA);  // Lire la donnée du registre
 103              		.loc 1 39 0
 104 001a 0120     		movs	r0, #1
 105 001c FFF7FEFF 		bl	I2C_I2CMasterReadByte
 106              	.LVL11:
 107 0020 C4B2     		uxtb	r4, r0
 108              	.LVL12:
  40:BME280.c      **** 
  41:BME280.c      ****     I2C_I2CMasterSendStop();  // Arrêter la communication I2C
 109              		.loc 1 41 0
 110 0022 FFF7FEFF 		bl	I2C_I2CMasterSendStop
 111              	.LVL13:
  42:BME280.c      ****     return valeur;  // Retourner la valeur lue
  43:BME280.c      **** }
 112              		.loc 1 43 0
 113 0026 2000     		movs	r0, r4
 114              		@ sp needed
 115              	.LVL14:
 116 0028 10BD     		pop	{r4, pc}
 117              		.cfi_endproc
 118              	.LFE35:
 119              		.size	BME280_ReadReg, .-BME280_ReadReg
 120 002a C046     		.section	.text.BME280_compensate_T_int32,"ax",%progbits
 121              		.align	2
 122              		.global	BME280_compensate_T_int32
 123              		.code	16
 124              		.thumb_func
 125              		.type	BME280_compensate_T_int32, %function
 126              	BME280_compensate_T_int32:
 127              	.LFB36:
  44:BME280.c      **** 
ARM GAS  C:\Users\labview\AppData\Local\Temp\ccEyZc3f.s 			page 4


  45:BME280.c      **** /* =========================================================
  46:BME280.c      ****  ** Routines établies à partir de la datasheet du composant
  47:BME280.c      **** * ==========================================================
  48:BME280.c      **** */
  49:BME280.c      **** 
  50:BME280.c      **** // Retourne la température en degrés Celsius, résolution de 0.01 °C. La valeur de sortie de "51
  51:BME280.c      **** // t_fine transporte la valeur de température fine comme valeur globale
  52:BME280.c      **** int32_t BME280_compensate_T_int32(int32_t adc_T) {
 128              		.loc 1 52 0
 129              		.cfi_startproc
 130              		@ args = 0, pretend = 0, frame = 0
 131              		@ frame_needed = 0, uses_anonymous_args = 0
 132              		@ link register save eliminated.
 133              	.LVL15:
  53:BME280.c      ****     int32_t var1, var2, T;
  54:BME280.c      ****     var1 = ((((adc_T >> 3) - ((int32_t)dig_T1 << 1))) * ((int32_t)dig_T2)) >> 11;
 134              		.loc 1 54 0
 135 0000 C210     		asrs	r2, r0, #3
 136 0002 0B4B     		ldr	r3, .L5
 137 0004 9C46     		mov	ip, r3
 138 0006 6244     		add	r2, r2, ip
 139 0008 0A4B     		ldr	r3, .L5+4
 140 000a 5A43     		muls	r2, r3
 141 000c D212     		asrs	r2, r2, #11
 142              	.LVL16:
  55:BME280.c      ****     var2 = (((((adc_T >> 4) - ((int32_t)dig_T1)) * ((adc_T >> 4) - ((int32_t)dig_T1))) >> 12) * ((i
 143              		.loc 1 55 0
 144 000e 0311     		asrs	r3, r0, #4
 145 0010 0949     		ldr	r1, .L5+8
 146 0012 8C46     		mov	ip, r1
 147 0014 6344     		add	r3, r3, ip
 148 0016 5B43     		muls	r3, r3
 149 0018 1813     		asrs	r0, r3, #12
 150              	.LVL17:
 151 001a 084B     		ldr	r3, .L5+12
 152 001c 5843     		muls	r0, r3
 153 001e 8013     		asrs	r0, r0, #14
 154              	.LVL18:
  56:BME280.c      ****     t_fine = var1 + var2;
 155              		.loc 1 56 0
 156 0020 1018     		adds	r0, r2, r0
 157              	.LVL19:
 158 0022 074B     		ldr	r3, .L5+16
 159              	.LVL20:
 160 0024 1860     		str	r0, [r3]
  57:BME280.c      ****     T = (t_fine * 5 + 128) >> 8;
 161              		.loc 1 57 0
 162 0026 8300     		lsls	r3, r0, #2
 163 0028 1818     		adds	r0, r3, r0
 164 002a 8030     		adds	r0, r0, #128
 165 002c 0012     		asrs	r0, r0, #8
 166              	.LVL21:
  58:BME280.c      ****     return T;  // Retourner la température compensée
  59:BME280.c      **** }
 167              		.loc 1 59 0
 168              		@ sp needed
 169 002e 7047     		bx	lr
ARM GAS  C:\Users\labview\AppData\Local\Temp\ccEyZc3f.s 			page 5


 170              	.L6:
 171              		.align	2
 172              	.L5:
 173 0030 2029FFFF 		.word	-55008
 174 0034 43670000 		.word	26435
 175 0038 9094FFFF 		.word	-27504
 176 003c 18FCFFFF 		.word	-1000
 177 0040 00000000 		.word	t_fine
 178              		.cfi_endproc
 179              	.LFE36:
 180              		.size	BME280_compensate_T_int32, .-BME280_compensate_T_int32
 181              		.global	__aeabi_lmul
 182              		.global	__aeabi_ldivmod
 183              		.section	.text.BME280_compensate_P_int64,"ax",%progbits
 184              		.align	2
 185              		.global	BME280_compensate_P_int64
 186              		.code	16
 187              		.thumb_func
 188              		.type	BME280_compensate_P_int64, %function
 189              	BME280_compensate_P_int64:
 190              	.LFB37:
  60:BME280.c      **** 
  61:BME280.c      **** // Retourne la pression en Pa comme entier non signé 32 bits au format Q24.8 (24 bits entiers et 8
  62:BME280.c      **** // La valeur de sortie de "24674867" représente 24674867/256 = 96386.2 Pa = 963.862 hPa
  63:BME280.c      **** uint32_t BME280_compensate_P_int64(int32_t adc_P) {
 191              		.loc 1 63 0
 192              		.cfi_startproc
 193              		@ args = 0, pretend = 0, frame = 24
 194              		@ frame_needed = 0, uses_anonymous_args = 0
 195              	.LVL22:
 196 0000 F0B5     		push	{r4, r5, r6, r7, lr}
 197              		.cfi_def_cfa_offset 20
 198              		.cfi_offset 4, -20
 199              		.cfi_offset 5, -16
 200              		.cfi_offset 6, -12
 201              		.cfi_offset 7, -8
 202              		.cfi_offset 14, -4
 203 0002 4746     		mov	r7, r8
 204 0004 80B4     		push	{r7}
 205              		.cfi_def_cfa_offset 24
 206              		.cfi_offset 8, -24
 207 0006 86B0     		sub	sp, sp, #24
 208              		.cfi_def_cfa_offset 48
 209 0008 0590     		str	r0, [sp, #20]
  64:BME280.c      ****     int64_t var1, var2, p;
  65:BME280.c      ****     var1 = ((int64_t)t_fine) - 128000;
 210              		.loc 1 65 0
 211 000a 514B     		ldr	r3, .L11
 212 000c 1968     		ldr	r1, [r3]
 213 000e 0A00     		movs	r2, r1
 214 0010 CB17     		asrs	r3, r1, #31
 215 0012 504E     		ldr	r6, .L11+4
 216 0014 0127     		movs	r7, #1
 217 0016 7F42     		rsbs	r7, r7, #0
 218 0018 B618     		adds	r6, r6, r2
 219 001a 5F41     		adcs	r7, r7, r3
 220              	.LVL23:
ARM GAS  C:\Users\labview\AppData\Local\Temp\ccEyZc3f.s 			page 6


  66:BME280.c      ****     var2 = var1 * var1 * (int64_t)dig_P6;
 221              		.loc 1 66 0
 222 001c 3200     		movs	r2, r6
 223 001e 3B00     		movs	r3, r7
 224 0020 0096     		str	r6, [sp]
 225 0022 0197     		str	r7, [sp, #4]
 226 0024 3000     		movs	r0, r6
 227              	.LVL24:
 228 0026 3900     		movs	r1, r7
 229 0028 FFF7FEFF 		bl	__aeabi_lmul
 230              	.LVL25:
 231 002c 0E00     		movs	r6, r1
 232              	.LVL26:
 233 002e 0400     		movs	r4, r0
 234 0030 0D00     		movs	r5, r1
 235 0032 410F     		lsrs	r1, r0, #29
 236 0034 0496     		str	r6, [sp, #16]
 237 0036 F300     		lsls	r3, r6, #3
 238 0038 0B43     		orrs	r3, r1
 239 003a 0600     		movs	r6, r0
 240 003c C200     		lsls	r2, r0, #3
 241 003e A41A     		subs	r4, r4, r2
 242 0040 9D41     		sbcs	r5, r5, r3
 243              	.LVL27:
  67:BME280.c      ****     var2 = var2 + ((var1 * (int64_t)dig_P5) << 17);
 244              		.loc 1 67 0
 245 0042 8C22     		movs	r2, #140
 246 0044 0023     		movs	r3, #0
 247 0046 0098     		ldr	r0, [sp]
 248 0048 0199     		ldr	r1, [sp, #4]
 249 004a FFF7FEFF 		bl	__aeabi_lmul
 250              	.LVL28:
 251 004e 8C46     		mov	ip, r1
 252 0050 C10B     		lsrs	r1, r0, #15
 253 0052 6746     		mov	r7, ip
 254 0054 7B04     		lsls	r3, r7, #17
 255 0056 0B43     		orrs	r3, r1
 256 0058 4204     		lsls	r2, r0, #17
 257 005a A418     		adds	r4, r4, r2
 258 005c 5D41     		adcs	r5, r5, r3
 259              	.LVL29:
  68:BME280.c      ****     var2 = var2 + (((int64_t)dig_P4) << 35);
 260              		.loc 1 68 0
 261 005e 0022     		movs	r2, #0
 262 0060 3D4B     		ldr	r3, .L11+8
 263 0062 A418     		adds	r4, r4, r2
 264 0064 5D41     		adcs	r5, r5, r3
 265              	.LVL30:
 266 0066 0294     		str	r4, [sp, #8]
 267 0068 0395     		str	r5, [sp, #12]
 268              	.LVL31:
  69:BME280.c      ****     var1 = ((var1 * var1 * (int64_t)dig_P3) >> 8) + ((var1 * (int64_t)dig_P2) << 12);
 269              		.loc 1 69 0
 270 006a BD22     		movs	r2, #189
 271 006c 1201     		lsls	r2, r2, #4
 272 006e 0023     		movs	r3, #0
 273 0070 3000     		movs	r0, r6
ARM GAS  C:\Users\labview\AppData\Local\Temp\ccEyZc3f.s 			page 7


 274 0072 0499     		ldr	r1, [sp, #16]
 275 0074 FFF7FEFF 		bl	__aeabi_lmul
 276              	.LVL32:
 277 0078 0B06     		lsls	r3, r1, #24
 278 007a 040A     		lsrs	r4, r0, #8
 279              	.LVL33:
 280 007c 1C43     		orrs	r4, r3
 281 007e 0D12     		asrs	r5, r1, #8
 282 0080 364A     		ldr	r2, .L11+12
 283 0082 0123     		movs	r3, #1
 284 0084 5B42     		rsbs	r3, r3, #0
 285 0086 0098     		ldr	r0, [sp]
 286 0088 0199     		ldr	r1, [sp, #4]
 287 008a FFF7FEFF 		bl	__aeabi_lmul
 288              	.LVL34:
 289 008e 060D     		lsrs	r6, r0, #20
 290 0090 0B03     		lsls	r3, r1, #12
 291 0092 3343     		orrs	r3, r6
 292 0094 0203     		lsls	r2, r0, #12
 293 0096 A418     		adds	r4, r4, r2
 294 0098 5D41     		adcs	r5, r5, r3
 295              	.LVL35:
  70:BME280.c      ****     var1 = (((((int64_t)1) << 47) + var1)) * ((int64_t)dig_P1) >> 33;
 296              		.loc 1 70 0
 297 009a 0020     		movs	r0, #0
 298 009c 8021     		movs	r1, #128
 299 009e 0902     		lsls	r1, r1, #8
 300 00a0 0019     		adds	r0, r0, r4
 301 00a2 6941     		adcs	r1, r1, r5
 302 00a4 2E4A     		ldr	r2, .L11+16
 303 00a6 0023     		movs	r3, #0
 304 00a8 FFF7FEFF 		bl	__aeabi_lmul
 305              	.LVL36:
 306 00ac 4C10     		asrs	r4, r1, #1
 307              	.LVL37:
 308 00ae CD17     		asrs	r5, r1, #31
 309              	.LVL38:
  71:BME280.c      ****     if (var1 == 0) return 0;  // Éviter la division par zéro
 310              		.loc 1 71 0
 311 00b0 2300     		movs	r3, r4
 312 00b2 2B43     		orrs	r3, r5
 313 00b4 47D0     		beq	.L10
  72:BME280.c      ****     p = 1048576 - adc_P;
 314              		.loc 1 72 0
 315 00b6 8023     		movs	r3, #128
 316 00b8 5B03     		lsls	r3, r3, #13
 317 00ba 0599     		ldr	r1, [sp, #20]
 318 00bc 5B1A     		subs	r3, r3, r1
 319 00be DE17     		asrs	r6, r3, #31
 320              	.LVL39:
  73:BME280.c      ****     p = (((p << 31) - var2) * 3125) / var1;
 321              		.loc 1 73 0
 322 00c0 5A08     		lsrs	r2, r3, #1
 323 00c2 F107     		lsls	r1, r6, #31
 324 00c4 1143     		orrs	r1, r2
 325 00c6 D807     		lsls	r0, r3, #31
 326 00c8 029A     		ldr	r2, [sp, #8]
ARM GAS  C:\Users\labview\AppData\Local\Temp\ccEyZc3f.s 			page 8


 327 00ca 039B     		ldr	r3, [sp, #12]
 328 00cc 801A     		subs	r0, r0, r2
 329 00ce 9941     		sbcs	r1, r1, r3
 330 00d0 244A     		ldr	r2, .L11+20
 331 00d2 0023     		movs	r3, #0
 332              	.LVL40:
 333 00d4 FFF7FEFF 		bl	__aeabi_lmul
 334              	.LVL41:
 335 00d8 2200     		movs	r2, r4
 336 00da 2B00     		movs	r3, r5
 337 00dc FFF7FEFF 		bl	__aeabi_ldivmod
 338              	.LVL42:
 339 00e0 0600     		movs	r6, r0
 340              	.LVL43:
 341 00e2 0F00     		movs	r7, r1
 342              	.LVL44:
  74:BME280.c      ****     var1 = (((int64_t)dig_P9) * (p >> 13) * (p >> 13)) >> 25;
 343              		.loc 1 74 0
 344 00e4 CB04     		lsls	r3, r1, #19
 345 00e6 440B     		lsrs	r4, r0, #13
 346              	.LVL45:
 347 00e8 1C43     		orrs	r4, r3
 348 00ea 4D13     		asrs	r5, r1, #13
 349 00ec 1E4A     		ldr	r2, .L11+24
 350 00ee 0023     		movs	r3, #0
 351 00f0 2000     		movs	r0, r4
 352 00f2 2900     		movs	r1, r5
 353 00f4 FFF7FEFF 		bl	__aeabi_lmul
 354              	.LVL46:
 355 00f8 0200     		movs	r2, r0
 356 00fa 0B00     		movs	r3, r1
 357 00fc 2000     		movs	r0, r4
 358 00fe 2900     		movs	r1, r5
 359 0100 FFF7FEFF 		bl	__aeabi_lmul
 360              	.LVL47:
 361 0104 CB01     		lsls	r3, r1, #7
 362 0106 440E     		lsrs	r4, r0, #25
 363 0108 1C43     		orrs	r4, r3
 364 010a 4D16     		asrs	r5, r1, #25
 365              	.LVL48:
  75:BME280.c      ****     var2 = (((int64_t)dig_P8) * p) >> 19;
 366              		.loc 1 75 0
 367 010c 174A     		ldr	r2, .L11+28
 368 010e 0123     		movs	r3, #1
 369 0110 5B42     		rsbs	r3, r3, #0
 370 0112 3000     		movs	r0, r6
 371 0114 3900     		movs	r1, r7
 372 0116 FFF7FEFF 		bl	__aeabi_lmul
 373              	.LVL49:
 374 011a 4B03     		lsls	r3, r1, #13
 375 011c 9846     		mov	r8, r3
 376 011e C20C     		lsrs	r2, r0, #19
 377 0120 4046     		mov	r0, r8
 378 0122 0243     		orrs	r2, r0
 379 0124 CB14     		asrs	r3, r1, #19
 380              	.LVL50:
  76:BME280.c      ****     p = ((p + var1 + var2) >> 8) + (((int64_t)dig_P7) << 4);
ARM GAS  C:\Users\labview\AppData\Local\Temp\ccEyZc3f.s 			page 9


 381              		.loc 1 76 0
 382 0126 A419     		adds	r4, r4, r6
 383 0128 7D41     		adcs	r5, r5, r7
 384              	.LVL51:
 385 012a A418     		adds	r4, r4, r2
 386 012c 5D41     		adcs	r5, r5, r3
 387 012e 2B06     		lsls	r3, r5, #24
 388 0130 200A     		lsrs	r0, r4, #8
 389 0132 1843     		orrs	r0, r3
 390 0134 2912     		asrs	r1, r5, #8
 391 0136 0E4A     		ldr	r2, .L11+32
 392              	.LVL52:
 393 0138 0023     		movs	r3, #0
 394 013a 1218     		adds	r2, r2, r0
 395 013c 4B41     		adcs	r3, r3, r1
 396              	.LVL53:
  77:BME280.c      ****     p = p >> 8;
 397              		.loc 1 77 0
 398 013e 1806     		lsls	r0, r3, #24
 399 0140 120A     		lsrs	r2, r2, #8
 400              	.LVL54:
 401 0142 1043     		orrs	r0, r2
  78:BME280.c      ****     return (uint32_t)p;  // Retourner la pression compensée
 402              		.loc 1 78 0
 403 0144 00E0     		b	.L8
 404              	.LVL55:
 405              	.L10:
  71:BME280.c      ****     p = 1048576 - adc_P;
 406              		.loc 1 71 0
 407 0146 0020     		movs	r0, #0
 408              	.LVL56:
 409              	.L8:
  79:BME280.c      **** }
 410              		.loc 1 79 0
 411 0148 06B0     		add	sp, sp, #24
 412              		@ sp needed
 413 014a 04BC     		pop	{r2}
 414 014c 9046     		mov	r8, r2
 415 014e F0BD     		pop	{r4, r5, r6, r7, pc}
 416              	.L12:
 417              		.align	2
 418              	.L11:
 419 0150 00000000 		.word	t_fine
 420 0154 000CFEFF 		.word	-128000
 421 0158 38590000 		.word	22840
 422 015c 43D6FFFF 		.word	-10685
 423 0160 7D8E0000 		.word	36477
 424 0164 350C0000 		.word	3125
 425 0168 70170000 		.word	6000
 426 016c F8C6FFFF 		.word	-14600
 427 0170 C0C80300 		.word	248000
 428              		.cfi_endproc
 429              	.LFE37:
 430              		.size	BME280_compensate_P_int64, .-BME280_compensate_P_int64
 431              		.global	__aeabi_i2d
 432              		.global	__aeabi_dmul
 433              		.global	__aeabi_dsub
ARM GAS  C:\Users\labview\AppData\Local\Temp\ccEyZc3f.s 			page 10


 434              		.global	__aeabi_dadd
 435              		.global	__aeabi_ddiv
 436              		.section	.text.BME280_compensate_P_double,"ax",%progbits
 437              		.align	2
 438              		.global	BME280_compensate_P_double
 439              		.code	16
 440              		.thumb_func
 441              		.type	BME280_compensate_P_double, %function
 442              	BME280_compensate_P_double:
 443              	.LFB38:
  80:BME280.c      **** 
  81:BME280.c      **** // Retourne la pression en Pa comme double. La valeur de sortie de "96386.2" correspond à 96386.2 
  82:BME280.c      **** double BME280_compensate_P_double(int32_t adc_P) {
 444              		.loc 1 82 0
 445              		.cfi_startproc
 446              		@ args = 0, pretend = 0, frame = 16
 447              		@ frame_needed = 0, uses_anonymous_args = 0
 448              	.LVL57:
 449 0000 F0B5     		push	{r4, r5, r6, r7, lr}
 450              		.cfi_def_cfa_offset 20
 451              		.cfi_offset 4, -20
 452              		.cfi_offset 5, -16
 453              		.cfi_offset 6, -12
 454              		.cfi_offset 7, -8
 455              		.cfi_offset 14, -4
 456 0002 85B0     		sub	sp, sp, #20
 457              		.cfi_def_cfa_offset 40
 458 0004 0190     		str	r0, [sp, #4]
  83:BME280.c      ****     double var1, var2, p;
  84:BME280.c      ****     var1 = ((double)t_fine / 2.0) - 64000.0;
 459              		.loc 1 84 0
 460 0006 5A4B     		ldr	r3, .L14
 461 0008 1868     		ldr	r0, [r3]
 462              	.LVL58:
 463 000a FFF7FEFF 		bl	__aeabi_i2d
 464              	.LVL59:
 465 000e 0022     		movs	r2, #0
 466 0010 584B     		ldr	r3, .L14+4
 467 0012 FFF7FEFF 		bl	__aeabi_dmul
 468              	.LVL60:
 469 0016 0022     		movs	r2, #0
 470 0018 574B     		ldr	r3, .L14+8
 471 001a FFF7FEFF 		bl	__aeabi_dsub
 472              	.LVL61:
 473 001e 0400     		movs	r4, r0
 474 0020 0D00     		movs	r5, r1
 475              	.LVL62:
  85:BME280.c      ****     var2 = var1 * var1 * ((double)dig_P6) / 32768.0;
 476              		.loc 1 85 0
 477 0022 0200     		movs	r2, r0
 478 0024 0B00     		movs	r3, r1
 479 0026 FFF7FEFF 		bl	__aeabi_dmul
 480              	.LVL63:
 481 002a 0022     		movs	r2, #0
 482 002c 534B     		ldr	r3, .L14+12
 483 002e FFF7FEFF 		bl	__aeabi_dmul
 484              	.LVL64:
ARM GAS  C:\Users\labview\AppData\Local\Temp\ccEyZc3f.s 			page 11


 485 0032 0022     		movs	r2, #0
 486 0034 FC23     		movs	r3, #252
 487 0036 9B05     		lsls	r3, r3, #22
 488 0038 FFF7FEFF 		bl	__aeabi_dmul
 489              	.LVL65:
 490 003c 0600     		movs	r6, r0
 491 003e 0F00     		movs	r7, r1
 492              	.LVL66:
  86:BME280.c      ****     var2 = var2 + var1 * ((double)dig_P5) * 2.0;
 493              		.loc 1 86 0
 494 0040 0022     		movs	r2, #0
 495 0042 4F4B     		ldr	r3, .L14+16
 496 0044 2000     		movs	r0, r4
 497 0046 2900     		movs	r1, r5
 498 0048 FFF7FEFF 		bl	__aeabi_dmul
 499              	.LVL67:
 500 004c 0200     		movs	r2, r0
 501 004e 0B00     		movs	r3, r1
 502 0050 FFF7FEFF 		bl	__aeabi_dadd
 503              	.LVL68:
 504 0054 0200     		movs	r2, r0
 505 0056 0B00     		movs	r3, r1
 506 0058 3000     		movs	r0, r6
 507 005a 3900     		movs	r1, r7
 508 005c FFF7FEFF 		bl	__aeabi_dadd
 509              	.LVL69:
 510 0060 0290     		str	r0, [sp, #8]
 511 0062 0391     		str	r1, [sp, #12]
 512              	.LVL70:
  87:BME280.c      ****     var1 = (((double)dig_P3) * var1 * var1 / 524288.0 + ((double)dig_P2) * var1) / 524288.0;
 513              		.loc 1 87 0
 514 0064 0022     		movs	r2, #0
 515 0066 474B     		ldr	r3, .L14+20
 516 0068 2000     		movs	r0, r4
 517              	.LVL71:
 518 006a 2900     		movs	r1, r5
 519 006c FFF7FEFF 		bl	__aeabi_dmul
 520              	.LVL72:
 521 0070 0200     		movs	r2, r0
 522 0072 0B00     		movs	r3, r1
 523 0074 2000     		movs	r0, r4
 524 0076 2900     		movs	r1, r5
 525 0078 FFF7FEFF 		bl	__aeabi_dmul
 526              	.LVL73:
 527 007c 0022     		movs	r2, #0
 528 007e FB23     		movs	r3, #251
 529 0080 9B05     		lsls	r3, r3, #22
 530 0082 FFF7FEFF 		bl	__aeabi_dmul
 531              	.LVL74:
 532 0086 0600     		movs	r6, r0
 533 0088 0F00     		movs	r7, r1
 534 008a 0022     		movs	r2, #0
 535 008c 3E4B     		ldr	r3, .L14+24
 536 008e 2000     		movs	r0, r4
 537 0090 2900     		movs	r1, r5
 538 0092 FFF7FEFF 		bl	__aeabi_dmul
 539              	.LVL75:
ARM GAS  C:\Users\labview\AppData\Local\Temp\ccEyZc3f.s 			page 12


 540 0096 0200     		movs	r2, r0
 541 0098 0B00     		movs	r3, r1
 542 009a 3000     		movs	r0, r6
 543 009c 3900     		movs	r1, r7
 544 009e FFF7FEFF 		bl	__aeabi_dadd
 545              	.LVL76:
 546 00a2 0022     		movs	r2, #0
 547 00a4 FB23     		movs	r3, #251
 548 00a6 9B05     		lsls	r3, r3, #22
 549 00a8 FFF7FEFF 		bl	__aeabi_dmul
 550              	.LVL77:
  88:BME280.c      ****     var1 = (1.0 + var1 / 32768.0) * ((double)dig_P1);
 551              		.loc 1 88 0
 552 00ac 0022     		movs	r2, #0
 553 00ae FC23     		movs	r3, #252
 554 00b0 9B05     		lsls	r3, r3, #22
 555 00b2 FFF7FEFF 		bl	__aeabi_dmul
 556              	.LVL78:
 557 00b6 0022     		movs	r2, #0
 558 00b8 344B     		ldr	r3, .L14+28
 559 00ba FFF7FEFF 		bl	__aeabi_dadd
 560              	.LVL79:
 561 00be 0022     		movs	r2, #0
 562 00c0 334B     		ldr	r3, .L14+32
 563 00c2 FFF7FEFF 		bl	__aeabi_dmul
 564              	.LVL80:
 565 00c6 0600     		movs	r6, r0
 566 00c8 0F00     		movs	r7, r1
 567              	.LVL81:
  89:BME280.c      ****     p = 1048576.0 - (double)adc_P;
 568              		.loc 1 89 0
 569 00ca 0198     		ldr	r0, [sp, #4]
 570 00cc FFF7FEFF 		bl	__aeabi_i2d
 571              	.LVL82:
 572 00d0 0200     		movs	r2, r0
 573 00d2 0B00     		movs	r3, r1
 574 00d4 0020     		movs	r0, #0
 575 00d6 2F49     		ldr	r1, .L14+36
 576 00d8 FFF7FEFF 		bl	__aeabi_dsub
 577              	.LVL83:
 578 00dc 0400     		movs	r4, r0
 579 00de 0D00     		movs	r5, r1
 580              	.LVL84:
  90:BME280.c      ****     p = (p - (var2 / 4096.0)) * 6250.0 / var1;
 581              		.loc 1 90 0
 582 00e0 0022     		movs	r2, #0
 583 00e2 2D4B     		ldr	r3, .L14+40
 584 00e4 0298     		ldr	r0, [sp, #8]
 585 00e6 0399     		ldr	r1, [sp, #12]
 586 00e8 FFF7FEFF 		bl	__aeabi_dmul
 587              	.LVL85:
 588 00ec 0200     		movs	r2, r0
 589 00ee 0B00     		movs	r3, r1
 590 00f0 2000     		movs	r0, r4
 591 00f2 2900     		movs	r1, r5
 592 00f4 FFF7FEFF 		bl	__aeabi_dsub
 593              	.LVL86:
ARM GAS  C:\Users\labview\AppData\Local\Temp\ccEyZc3f.s 			page 13


 594 00f8 0022     		movs	r2, #0
 595 00fa 284B     		ldr	r3, .L14+44
 596 00fc FFF7FEFF 		bl	__aeabi_dmul
 597              	.LVL87:
 598 0100 3200     		movs	r2, r6
 599 0102 3B00     		movs	r3, r7
 600 0104 FFF7FEFF 		bl	__aeabi_ddiv
 601              	.LVL88:
 602 0108 0400     		movs	r4, r0
 603              	.LVL89:
 604 010a 0D00     		movs	r5, r1
 605              	.LVL90:
  91:BME280.c      ****     var1 = ((double)dig_P9) * p * p / 2147483648.0;
 606              		.loc 1 91 0
 607 010c 0022     		movs	r2, #0
 608 010e 244B     		ldr	r3, .L14+48
 609 0110 FFF7FEFF 		bl	__aeabi_dmul
 610              	.LVL91:
 611 0114 0200     		movs	r2, r0
 612 0116 0B00     		movs	r3, r1
 613 0118 2000     		movs	r0, r4
 614 011a 2900     		movs	r1, r5
 615 011c FFF7FEFF 		bl	__aeabi_dmul
 616              	.LVL92:
 617 0120 0022     		movs	r2, #0
 618 0122 F823     		movs	r3, #248
 619 0124 9B05     		lsls	r3, r3, #22
 620 0126 FFF7FEFF 		bl	__aeabi_dmul
 621              	.LVL93:
 622 012a 0600     		movs	r6, r0
 623              	.LVL94:
 624 012c 0F00     		movs	r7, r1
 625              	.LVL95:
  92:BME280.c      ****     var2 = p * ((double)dig_P8) / 32768.0;
 626              		.loc 1 92 0
 627 012e 0022     		movs	r2, #0
 628 0130 1C4B     		ldr	r3, .L14+52
 629 0132 2000     		movs	r0, r4
 630 0134 2900     		movs	r1, r5
 631 0136 FFF7FEFF 		bl	__aeabi_dmul
 632              	.LVL96:
 633 013a 0022     		movs	r2, #0
 634 013c FC23     		movs	r3, #252
 635 013e 9B05     		lsls	r3, r3, #22
 636 0140 FFF7FEFF 		bl	__aeabi_dmul
 637              	.LVL97:
 638 0144 0200     		movs	r2, r0
 639 0146 0B00     		movs	r3, r1
 640              	.LVL98:
  93:BME280.c      ****     p = p + (var1 + var2 + ((double)dig_P7)) / 16.0;
 641              		.loc 1 93 0
 642 0148 3000     		movs	r0, r6
 643 014a 3900     		movs	r1, r7
 644 014c FFF7FEFF 		bl	__aeabi_dadd
 645              	.LVL99:
 646 0150 0022     		movs	r2, #0
 647 0152 154B     		ldr	r3, .L14+56
ARM GAS  C:\Users\labview\AppData\Local\Temp\ccEyZc3f.s 			page 14


 648 0154 FFF7FEFF 		bl	__aeabi_dadd
 649              	.LVL100:
 650 0158 0022     		movs	r2, #0
 651 015a 144B     		ldr	r3, .L14+60
 652 015c FFF7FEFF 		bl	__aeabi_dmul
 653              	.LVL101:
 654 0160 0200     		movs	r2, r0
 655 0162 0B00     		movs	r3, r1
 656 0164 2000     		movs	r0, r4
 657 0166 2900     		movs	r1, r5
 658 0168 FFF7FEFF 		bl	__aeabi_dadd
 659              	.LVL102:
  94:BME280.c      ****     return p;  // Retourner la pression compensée
  95:BME280.c      **** }
 660              		.loc 1 95 0
 661 016c 05B0     		add	sp, sp, #20
 662              		@ sp needed
 663              	.LVL103:
 664 016e F0BD     		pop	{r4, r5, r6, r7, pc}
 665              	.L15:
 666              		.align	2
 667              	.L14:
 668 0170 00000000 		.word	t_fine
 669 0174 0000E03F 		.word	1071644672
 670 0178 0040EF40 		.word	1089421312
 671 017c 00001CC0 		.word	-1071906816
 672 0180 00806140 		.word	1080131584
 673 0184 00A0A740 		.word	1084727296
 674 0188 80DEC4C0 		.word	-1060839808
 675 018c 0000F03F 		.word	1072693248
 676 0190 A0CFE140 		.word	1088540576
 677 0194 00003041 		.word	1093664768
 678 0198 0000303F 		.word	1060110336
 679 019c 006AB840 		.word	1085827584
 680 01a0 0070B740 		.word	1085763584
 681 01a4 0084CCC0 		.word	-1060338688
 682 01a8 0046CE40 		.word	1087260160
 683 01ac 0000B03F 		.word	1068498944
 684              		.cfi_endproc
 685              	.LFE38:
 686              		.size	BME280_compensate_P_double, .-BME280_compensate_P_double
 687              		.comm	t_fine,4,4
 688              		.text
 689              	.Letext0:
 690              		.file 2 "c:\\program files (x86)\\cypress\\psoc creator\\4.4\\psoc creator\\import\\gnu\\arm\\5.4.
 691              		.file 3 "c:\\program files (x86)\\cypress\\psoc creator\\4.4\\psoc creator\\import\\gnu\\arm\\5.4.
 692              		.file 4 "Generated_Source\\PSoC4/cytypes.h"
 693              		.file 5 "Generated_Source\\PSoC4/I2C_I2C.h"
 694              		.file 6 "BME280.h"