ARM GAS  C:\Users\labview\AppData\Local\Temp\ccp5vw6t.s 			page 1


   1              		.syntax unified
   2              		.cpu cortex-m0
   3              		.fpu softvfp
   4              		.eabi_attribute 20, 1
   5              		.eabi_attribute 21, 1
   6              		.eabi_attribute 23, 3
   7              		.eabi_attribute 24, 1
   8              		.eabi_attribute 25, 1
   9              		.eabi_attribute 26, 1
  10              		.eabi_attribute 30, 1
  11              		.eabi_attribute 34, 0
  12              		.eabi_attribute 18, 4
  13              		.thumb
  14              		.syntax unified
  15              		.file	"cyfitter_cfg.c"
  16              		.text
  17              	.Ltext0:
  18              		.cfi_sections	.debug_frame
  19              		.section	.text.cfg_write_bytes32,"ax",%progbits
  20              		.align	2
  21              		.code	16
  22              		.thumb_func
  23              		.type	cfg_write_bytes32, %function
  24              	cfg_write_bytes32:
  25              	.LFB4:
  26              		.file 1 "Generated_Source\\PSoC4\\cyfitter_cfg.c"
   1:Generated_Source\PSoC4/cyfitter_cfg.c **** 
   2:Generated_Source\PSoC4/cyfitter_cfg.c **** /*******************************************************************************
   3:Generated_Source\PSoC4/cyfitter_cfg.c **** * File Name: cyfitter_cfg.c
   4:Generated_Source\PSoC4/cyfitter_cfg.c **** * 
   5:Generated_Source\PSoC4/cyfitter_cfg.c **** * PSoC Creator  4.4
   6:Generated_Source\PSoC4/cyfitter_cfg.c **** *
   7:Generated_Source\PSoC4/cyfitter_cfg.c **** * Description:
   8:Generated_Source\PSoC4/cyfitter_cfg.c **** * This file contains device initialization code.
   9:Generated_Source\PSoC4/cyfitter_cfg.c **** * Except for the user defined sections in CyClockStartupError(), this file should not be modified.
  10:Generated_Source\PSoC4/cyfitter_cfg.c **** * This file is automatically generated by PSoC Creator.
  11:Generated_Source\PSoC4/cyfitter_cfg.c **** *
  12:Generated_Source\PSoC4/cyfitter_cfg.c **** ********************************************************************************
  13:Generated_Source\PSoC4/cyfitter_cfg.c **** * Copyright (c) 2007-2020 Cypress Semiconductor.  All rights reserved.
  14:Generated_Source\PSoC4/cyfitter_cfg.c **** * You may use this file only in accordance with the license, terms, conditions, 
  15:Generated_Source\PSoC4/cyfitter_cfg.c **** * disclaimers, and limitations in the end user license agreement accompanying 
  16:Generated_Source\PSoC4/cyfitter_cfg.c **** * the software package with which this file was provided.
  17:Generated_Source\PSoC4/cyfitter_cfg.c **** ********************************************************************************/
  18:Generated_Source\PSoC4/cyfitter_cfg.c **** 
  19:Generated_Source\PSoC4/cyfitter_cfg.c **** #include <string.h>
  20:Generated_Source\PSoC4/cyfitter_cfg.c **** #include "cytypes.h"
  21:Generated_Source\PSoC4/cyfitter_cfg.c **** #include "cydevice_trm.h"
  22:Generated_Source\PSoC4/cyfitter_cfg.c **** #include "cyfitter.h"
  23:Generated_Source\PSoC4/cyfitter_cfg.c **** #include "CyLib.h"
  24:Generated_Source\PSoC4/cyfitter_cfg.c **** #include "CyLFClk.h"
  25:Generated_Source\PSoC4/cyfitter_cfg.c **** #include "cyfitter_cfg.h"
  26:Generated_Source\PSoC4/cyfitter_cfg.c **** #include "cyapicallbacks.h"
  27:Generated_Source\PSoC4/cyfitter_cfg.c **** 
  28:Generated_Source\PSoC4/cyfitter_cfg.c **** 
  29:Generated_Source\PSoC4/cyfitter_cfg.c **** #if defined(__GNUC__) || defined(__ARMCC_VERSION)
  30:Generated_Source\PSoC4/cyfitter_cfg.c ****     #define CYPACKED 
  31:Generated_Source\PSoC4/cyfitter_cfg.c ****     #define CYPACKED_ATTR __attribute__ ((packed))
ARM GAS  C:\Users\labview\AppData\Local\Temp\ccp5vw6t.s 			page 2


  32:Generated_Source\PSoC4/cyfitter_cfg.c ****     #define CYALIGNED __attribute__ ((aligned))
  33:Generated_Source\PSoC4/cyfitter_cfg.c ****     #define CY_CFG_UNUSED __attribute__ ((unused))
  34:Generated_Source\PSoC4/cyfitter_cfg.c ****     #ifndef CY_CFG_SECTION
  35:Generated_Source\PSoC4/cyfitter_cfg.c ****         #define CY_CFG_SECTION __attribute__ ((section(".psocinit")))
  36:Generated_Source\PSoC4/cyfitter_cfg.c ****     #endif
  37:Generated_Source\PSoC4/cyfitter_cfg.c ****     
  38:Generated_Source\PSoC4/cyfitter_cfg.c ****     #if defined(__ARMCC_VERSION)
  39:Generated_Source\PSoC4/cyfitter_cfg.c ****         #define CY_CFG_MEMORY_BARRIER() __memory_changed()
  40:Generated_Source\PSoC4/cyfitter_cfg.c ****     #else
  41:Generated_Source\PSoC4/cyfitter_cfg.c ****         #define CY_CFG_MEMORY_BARRIER() __sync_synchronize()
  42:Generated_Source\PSoC4/cyfitter_cfg.c ****     #endif
  43:Generated_Source\PSoC4/cyfitter_cfg.c ****     
  44:Generated_Source\PSoC4/cyfitter_cfg.c **** #elif defined(__ICCARM__)
  45:Generated_Source\PSoC4/cyfitter_cfg.c ****     #include <intrinsics.h>
  46:Generated_Source\PSoC4/cyfitter_cfg.c **** 
  47:Generated_Source\PSoC4/cyfitter_cfg.c ****     #define CYPACKED __packed
  48:Generated_Source\PSoC4/cyfitter_cfg.c ****     #define CYPACKED_ATTR 
  49:Generated_Source\PSoC4/cyfitter_cfg.c ****     #define CYALIGNED _Pragma("data_alignment=4")
  50:Generated_Source\PSoC4/cyfitter_cfg.c ****     #define CY_CFG_UNUSED _Pragma("diag_suppress=Pe177")
  51:Generated_Source\PSoC4/cyfitter_cfg.c ****     #define CY_CFG_SECTION _Pragma("location=\".psocinit\"")
  52:Generated_Source\PSoC4/cyfitter_cfg.c ****     
  53:Generated_Source\PSoC4/cyfitter_cfg.c ****     #define CY_CFG_MEMORY_BARRIER() __DMB()
  54:Generated_Source\PSoC4/cyfitter_cfg.c ****     
  55:Generated_Source\PSoC4/cyfitter_cfg.c **** #else
  56:Generated_Source\PSoC4/cyfitter_cfg.c ****     #error Unsupported toolchain
  57:Generated_Source\PSoC4/cyfitter_cfg.c **** #endif
  58:Generated_Source\PSoC4/cyfitter_cfg.c **** 
  59:Generated_Source\PSoC4/cyfitter_cfg.c **** #ifndef CYCODE
  60:Generated_Source\PSoC4/cyfitter_cfg.c ****     #define CYCODE
  61:Generated_Source\PSoC4/cyfitter_cfg.c **** #endif
  62:Generated_Source\PSoC4/cyfitter_cfg.c **** #ifndef CYDATA
  63:Generated_Source\PSoC4/cyfitter_cfg.c ****     #define CYDATA
  64:Generated_Source\PSoC4/cyfitter_cfg.c **** #endif
  65:Generated_Source\PSoC4/cyfitter_cfg.c **** #ifndef CYFAR
  66:Generated_Source\PSoC4/cyfitter_cfg.c ****     #define CYFAR
  67:Generated_Source\PSoC4/cyfitter_cfg.c **** #endif
  68:Generated_Source\PSoC4/cyfitter_cfg.c **** #ifndef CYXDATA
  69:Generated_Source\PSoC4/cyfitter_cfg.c ****     #define CYXDATA
  70:Generated_Source\PSoC4/cyfitter_cfg.c **** #endif
  71:Generated_Source\PSoC4/cyfitter_cfg.c **** 
  72:Generated_Source\PSoC4/cyfitter_cfg.c **** 
  73:Generated_Source\PSoC4/cyfitter_cfg.c **** CY_CFG_UNUSED
  74:Generated_Source\PSoC4/cyfitter_cfg.c **** static void CYMEMZERO(void *s, size_t n);
  75:Generated_Source\PSoC4/cyfitter_cfg.c **** CY_CFG_UNUSED
  76:Generated_Source\PSoC4/cyfitter_cfg.c **** static void CYMEMZERO(void *s, size_t n)
  77:Generated_Source\PSoC4/cyfitter_cfg.c **** {
  78:Generated_Source\PSoC4/cyfitter_cfg.c **** 	(void)memset(s, 0, n);
  79:Generated_Source\PSoC4/cyfitter_cfg.c **** }
  80:Generated_Source\PSoC4/cyfitter_cfg.c **** CY_CFG_UNUSED
  81:Generated_Source\PSoC4/cyfitter_cfg.c **** static void CYCONFIGCPY(void *dest, const void *src, size_t n);
  82:Generated_Source\PSoC4/cyfitter_cfg.c **** CY_CFG_UNUSED
  83:Generated_Source\PSoC4/cyfitter_cfg.c **** static void CYCONFIGCPY(void *dest, const void *src, size_t n)
  84:Generated_Source\PSoC4/cyfitter_cfg.c **** {
  85:Generated_Source\PSoC4/cyfitter_cfg.c **** 	(void)memcpy(dest, src, n);
  86:Generated_Source\PSoC4/cyfitter_cfg.c **** }
  87:Generated_Source\PSoC4/cyfitter_cfg.c **** CY_CFG_UNUSED
  88:Generated_Source\PSoC4/cyfitter_cfg.c **** static void CYCONFIGCPYCODE(void *dest, const void *src, size_t n);
ARM GAS  C:\Users\labview\AppData\Local\Temp\ccp5vw6t.s 			page 3


  89:Generated_Source\PSoC4/cyfitter_cfg.c **** CY_CFG_UNUSED
  90:Generated_Source\PSoC4/cyfitter_cfg.c **** static void CYCONFIGCPYCODE(void *dest, const void *src, size_t n)
  91:Generated_Source\PSoC4/cyfitter_cfg.c **** {
  92:Generated_Source\PSoC4/cyfitter_cfg.c **** 	(void)memcpy(dest, src, n);
  93:Generated_Source\PSoC4/cyfitter_cfg.c **** }
  94:Generated_Source\PSoC4/cyfitter_cfg.c **** 
  95:Generated_Source\PSoC4/cyfitter_cfg.c **** 
  96:Generated_Source\PSoC4/cyfitter_cfg.c **** 
  97:Generated_Source\PSoC4/cyfitter_cfg.c **** 
  98:Generated_Source\PSoC4/cyfitter_cfg.c **** /* Clock startup error codes                                                   */
  99:Generated_Source\PSoC4/cyfitter_cfg.c **** #define CYCLOCKSTART_NO_ERROR    0u
 100:Generated_Source\PSoC4/cyfitter_cfg.c **** #define CYCLOCKSTART_XTAL_ERROR  1u
 101:Generated_Source\PSoC4/cyfitter_cfg.c **** #define CYCLOCKSTART_32KHZ_ERROR 2u
 102:Generated_Source\PSoC4/cyfitter_cfg.c **** #define CYCLOCKSTART_PLL_ERROR   3u
 103:Generated_Source\PSoC4/cyfitter_cfg.c **** #define CYCLOCKSTART_FLL_ERROR   4u
 104:Generated_Source\PSoC4/cyfitter_cfg.c **** #define CYCLOCKSTART_WCO_ERROR   5u
 105:Generated_Source\PSoC4/cyfitter_cfg.c **** 
 106:Generated_Source\PSoC4/cyfitter_cfg.c **** 
 107:Generated_Source\PSoC4/cyfitter_cfg.c **** #ifdef CY_NEED_CYCLOCKSTARTUPERROR
 108:Generated_Source\PSoC4/cyfitter_cfg.c **** /*******************************************************************************
 109:Generated_Source\PSoC4/cyfitter_cfg.c **** * Function Name: CyClockStartupError
 110:Generated_Source\PSoC4/cyfitter_cfg.c **** ********************************************************************************
 111:Generated_Source\PSoC4/cyfitter_cfg.c **** * Summary:
 112:Generated_Source\PSoC4/cyfitter_cfg.c **** *  If an error is encountered during clock configuration (crystal startup error,
 113:Generated_Source\PSoC4/cyfitter_cfg.c **** *  PLL lock error, etc.), the system will end up here.  Unless reimplemented by
 114:Generated_Source\PSoC4/cyfitter_cfg.c **** *  the customer, this function will stop in an infinite loop.
 115:Generated_Source\PSoC4/cyfitter_cfg.c **** *
 116:Generated_Source\PSoC4/cyfitter_cfg.c **** * Parameters:
 117:Generated_Source\PSoC4/cyfitter_cfg.c **** *   void
 118:Generated_Source\PSoC4/cyfitter_cfg.c **** *
 119:Generated_Source\PSoC4/cyfitter_cfg.c **** * Return:
 120:Generated_Source\PSoC4/cyfitter_cfg.c **** *   void
 121:Generated_Source\PSoC4/cyfitter_cfg.c **** *
 122:Generated_Source\PSoC4/cyfitter_cfg.c **** *******************************************************************************/
 123:Generated_Source\PSoC4/cyfitter_cfg.c **** CY_CFG_UNUSED
 124:Generated_Source\PSoC4/cyfitter_cfg.c **** static void CyClockStartupError(uint8 errorCode);
 125:Generated_Source\PSoC4/cyfitter_cfg.c **** CY_CFG_UNUSED
 126:Generated_Source\PSoC4/cyfitter_cfg.c **** static void CyClockStartupError(uint8 errorCode)
 127:Generated_Source\PSoC4/cyfitter_cfg.c **** {
 128:Generated_Source\PSoC4/cyfitter_cfg.c ****     /* To remove the compiler warning if errorCode not used.                */
 129:Generated_Source\PSoC4/cyfitter_cfg.c ****     errorCode = errorCode;
 130:Generated_Source\PSoC4/cyfitter_cfg.c **** 
 131:Generated_Source\PSoC4/cyfitter_cfg.c ****     /* If we have a clock startup error (bad MHz crystal, PLL lock, etc.),  */
 132:Generated_Source\PSoC4/cyfitter_cfg.c ****     /* we will end up here to allow the customer to implement something to  */
 133:Generated_Source\PSoC4/cyfitter_cfg.c ****     /* deal with the clock condition.                                       */
 134:Generated_Source\PSoC4/cyfitter_cfg.c **** 
 135:Generated_Source\PSoC4/cyfitter_cfg.c **** #ifdef CY_CFG_CLOCK_STARTUP_ERROR_CALLBACK
 136:Generated_Source\PSoC4/cyfitter_cfg.c ****     CY_CFG_Clock_Startup_ErrorCallback();
 137:Generated_Source\PSoC4/cyfitter_cfg.c **** #else
 138:Generated_Source\PSoC4/cyfitter_cfg.c ****     /*  If not using CY_CFG_CLOCK_STARTUP_ERROR_CALLBACK, place your clock startup code here. */
 139:Generated_Source\PSoC4/cyfitter_cfg.c ****     /* `#START CyClockStartupError` */
 140:Generated_Source\PSoC4/cyfitter_cfg.c **** 
 141:Generated_Source\PSoC4/cyfitter_cfg.c **** 
 142:Generated_Source\PSoC4/cyfitter_cfg.c **** 
 143:Generated_Source\PSoC4/cyfitter_cfg.c ****     /* `#END` */
 144:Generated_Source\PSoC4/cyfitter_cfg.c **** 
 145:Generated_Source\PSoC4/cyfitter_cfg.c ****     while(1) {}
ARM GAS  C:\Users\labview\AppData\Local\Temp\ccp5vw6t.s 			page 4


 146:Generated_Source\PSoC4/cyfitter_cfg.c **** #endif /* CY_CFG_CLOCK_STARTUP_ERROR_CALLBACK */
 147:Generated_Source\PSoC4/cyfitter_cfg.c **** }
 148:Generated_Source\PSoC4/cyfitter_cfg.c **** #endif
 149:Generated_Source\PSoC4/cyfitter_cfg.c **** 
 150:Generated_Source\PSoC4/cyfitter_cfg.c **** #define CY_CFG_BASE_ADDR_COUNT 6u
 151:Generated_Source\PSoC4/cyfitter_cfg.c **** CYPACKED typedef struct
 152:Generated_Source\PSoC4/cyfitter_cfg.c **** {
 153:Generated_Source\PSoC4/cyfitter_cfg.c **** 	uint8 offset;
 154:Generated_Source\PSoC4/cyfitter_cfg.c **** 	uint8 value;
 155:Generated_Source\PSoC4/cyfitter_cfg.c **** } CYPACKED_ATTR cy_cfg_addrvalue_t;
 156:Generated_Source\PSoC4/cyfitter_cfg.c **** 
 157:Generated_Source\PSoC4/cyfitter_cfg.c **** 
 158:Generated_Source\PSoC4/cyfitter_cfg.c **** 
 159:Generated_Source\PSoC4/cyfitter_cfg.c **** /*******************************************************************************
 160:Generated_Source\PSoC4/cyfitter_cfg.c **** * Function Name: cfg_write_bytes32
 161:Generated_Source\PSoC4/cyfitter_cfg.c **** ********************************************************************************
 162:Generated_Source\PSoC4/cyfitter_cfg.c **** * Summary:
 163:Generated_Source\PSoC4/cyfitter_cfg.c **** *  This function is used for setting up the chip configuration areas that
 164:Generated_Source\PSoC4/cyfitter_cfg.c **** *  contain relatively sparse data.
 165:Generated_Source\PSoC4/cyfitter_cfg.c **** *
 166:Generated_Source\PSoC4/cyfitter_cfg.c **** * Parameters:
 167:Generated_Source\PSoC4/cyfitter_cfg.c **** *   void
 168:Generated_Source\PSoC4/cyfitter_cfg.c **** *
 169:Generated_Source\PSoC4/cyfitter_cfg.c **** * Return:
 170:Generated_Source\PSoC4/cyfitter_cfg.c **** *   void
 171:Generated_Source\PSoC4/cyfitter_cfg.c **** *
 172:Generated_Source\PSoC4/cyfitter_cfg.c **** *******************************************************************************/
 173:Generated_Source\PSoC4/cyfitter_cfg.c **** static void cfg_write_bytes32(const uint32 addr_table[], const cy_cfg_addrvalue_t data_table[]);
 174:Generated_Source\PSoC4/cyfitter_cfg.c **** static void cfg_write_bytes32(const uint32 addr_table[], const cy_cfg_addrvalue_t data_table[])
 175:Generated_Source\PSoC4/cyfitter_cfg.c **** {
  27              		.loc 1 175 0
  28              		.cfi_startproc
  29              		@ args = 0, pretend = 0, frame = 0
  30              		@ frame_needed = 0, uses_anonymous_args = 0
  31              	.LVL0:
  32 0000 F0B5     		push	{r4, r5, r6, r7, lr}
  33              		.cfi_def_cfa_offset 20
  34              		.cfi_offset 4, -20
  35              		.cfi_offset 5, -16
  36              		.cfi_offset 6, -12
  37              		.cfi_offset 7, -8
  38              		.cfi_offset 14, -4
  39              	.LVL1:
 176:Generated_Source\PSoC4/cyfitter_cfg.c **** 	/* For 32-bit little-endian architectures */
 177:Generated_Source\PSoC4/cyfitter_cfg.c **** 	uint32 i, j = 0u;
  40              		.loc 1 177 0
  41 0002 0025     		movs	r5, #0
 178:Generated_Source\PSoC4/cyfitter_cfg.c **** 	for (i = 0u; i < CY_CFG_BASE_ADDR_COUNT; i++)
  42              		.loc 1 178 0
  43 0004 0027     		movs	r7, #0
  44 0006 11E0     		b	.L2
  45              	.LVL2:
  46              	.L5:
  47              	.LBB2:
 179:Generated_Source\PSoC4/cyfitter_cfg.c **** 	{
 180:Generated_Source\PSoC4/cyfitter_cfg.c **** 		uint32 baseAddr = addr_table[i];
  48              		.loc 1 180 0
ARM GAS  C:\Users\labview\AppData\Local\Temp\ccp5vw6t.s 			page 5


  49 0008 BB00     		lsls	r3, r7, #2
  50 000a C658     		ldr	r6, [r0, r3]
  51              	.LVL3:
 181:Generated_Source\PSoC4/cyfitter_cfg.c **** 		uint8 count = (uint8)baseAddr;
  52              		.loc 1 181 0
  53 000c F3B2     		uxtb	r3, r6
  54              	.LVL4:
 182:Generated_Source\PSoC4/cyfitter_cfg.c **** 		baseAddr &= 0xFFFFFF00u;
  55              		.loc 1 182 0
  56 000e FF22     		movs	r2, #255
  57 0010 9643     		bics	r6, r2
  58              	.LVL5:
 183:Generated_Source\PSoC4/cyfitter_cfg.c **** 		while (count != 0u)
  59              		.loc 1 183 0
  60 0012 08E0     		b	.L3
  61              	.L4:
 184:Generated_Source\PSoC4/cyfitter_cfg.c **** 		{
 185:Generated_Source\PSoC4/cyfitter_cfg.c **** 			CY_SET_REG8((void *)(baseAddr + data_table[j].offset), data_table[j].value);
  62              		.loc 1 185 0
  63 0014 6A00     		lsls	r2, r5, #1
  64 0016 8A18     		adds	r2, r1, r2
  65 0018 1478     		ldrb	r4, [r2]
  66 001a A419     		adds	r4, r4, r6
  67 001c 5278     		ldrb	r2, [r2, #1]
  68 001e 2270     		strb	r2, [r4]
 186:Generated_Source\PSoC4/cyfitter_cfg.c **** 			j++;
  69              		.loc 1 186 0
  70 0020 0135     		adds	r5, r5, #1
  71              	.LVL6:
 187:Generated_Source\PSoC4/cyfitter_cfg.c **** 			count--;
  72              		.loc 1 187 0
  73 0022 013B     		subs	r3, r3, #1
  74              	.LVL7:
  75 0024 DBB2     		uxtb	r3, r3
  76              	.LVL8:
  77              	.L3:
 183:Generated_Source\PSoC4/cyfitter_cfg.c **** 		{
  78              		.loc 1 183 0
  79 0026 002B     		cmp	r3, #0
  80 0028 F4D1     		bne	.L4
  81              	.LBE2:
 178:Generated_Source\PSoC4/cyfitter_cfg.c **** 	{
  82              		.loc 1 178 0 discriminator 2
  83 002a 0137     		adds	r7, r7, #1
  84              	.LVL9:
  85              	.L2:
 178:Generated_Source\PSoC4/cyfitter_cfg.c **** 	{
  86              		.loc 1 178 0 is_stmt 0 discriminator 1
  87 002c 052F     		cmp	r7, #5
  88 002e EBD9     		bls	.L5
 188:Generated_Source\PSoC4/cyfitter_cfg.c **** 		}
 189:Generated_Source\PSoC4/cyfitter_cfg.c **** 	}
 190:Generated_Source\PSoC4/cyfitter_cfg.c **** }
  89              		.loc 1 190 0 is_stmt 1
  90              		@ sp needed
  91              	.LVL10:
  92              	.LVL11:
ARM GAS  C:\Users\labview\AppData\Local\Temp\ccp5vw6t.s 			page 6


  93 0030 F0BD     		pop	{r4, r5, r6, r7, pc}
  94              		.cfi_endproc
  95              	.LFE4:
  96              		.size	cfg_write_bytes32, .-cfg_write_bytes32
  97 0032 C046     		.section	.text.AnalogSetDefault,"ax",%progbits
  98              		.align	2
  99              		.code	16
 100              		.thumb_func
 101              		.type	AnalogSetDefault, %function
 102              	AnalogSetDefault:
 103              	.LFB6:
 191:Generated_Source\PSoC4/cyfitter_cfg.c **** 
 192:Generated_Source\PSoC4/cyfitter_cfg.c **** 
 193:Generated_Source\PSoC4/cyfitter_cfg.c **** /*******************************************************************************
 194:Generated_Source\PSoC4/cyfitter_cfg.c **** * Function Name: ClockSetup
 195:Generated_Source\PSoC4/cyfitter_cfg.c **** ********************************************************************************
 196:Generated_Source\PSoC4/cyfitter_cfg.c **** *
 197:Generated_Source\PSoC4/cyfitter_cfg.c **** * Summary:
 198:Generated_Source\PSoC4/cyfitter_cfg.c **** *   Performs the initialization of all of the clocks in the device based on the
 199:Generated_Source\PSoC4/cyfitter_cfg.c **** *   settings in the Clock tab of the DWR.  This includes enabling the requested
 200:Generated_Source\PSoC4/cyfitter_cfg.c **** *   clocks and setting the necessary dividers to produce the desired frequency. 
 201:Generated_Source\PSoC4/cyfitter_cfg.c **** *
 202:Generated_Source\PSoC4/cyfitter_cfg.c **** * Parameters:
 203:Generated_Source\PSoC4/cyfitter_cfg.c **** *   void
 204:Generated_Source\PSoC4/cyfitter_cfg.c **** *
 205:Generated_Source\PSoC4/cyfitter_cfg.c **** * Return:
 206:Generated_Source\PSoC4/cyfitter_cfg.c **** *   void
 207:Generated_Source\PSoC4/cyfitter_cfg.c **** *
 208:Generated_Source\PSoC4/cyfitter_cfg.c **** *******************************************************************************/
 209:Generated_Source\PSoC4/cyfitter_cfg.c **** static void ClockSetup(void);
 210:Generated_Source\PSoC4/cyfitter_cfg.c **** CY_CFG_SECTION
 211:Generated_Source\PSoC4/cyfitter_cfg.c **** static void ClockSetup(void)
 212:Generated_Source\PSoC4/cyfitter_cfg.c **** {
 213:Generated_Source\PSoC4/cyfitter_cfg.c **** 
 214:Generated_Source\PSoC4/cyfitter_cfg.c **** 	/* Set Flash Cycles based on max possible frequency in case a glitch occurs during ClockSetup(). *
 215:Generated_Source\PSoC4/cyfitter_cfg.c **** 	CY_SET_REG32((void CYXDATA *)(CYREG_CPUSS_FLASH_CTL), (0x0012u));
 216:Generated_Source\PSoC4/cyfitter_cfg.c **** 
 217:Generated_Source\PSoC4/cyfitter_cfg.c **** 	/* Start the WCO */
 218:Generated_Source\PSoC4/cyfitter_cfg.c **** 	CySysClkWcoStart();
 219:Generated_Source\PSoC4/cyfitter_cfg.c **** 	CyDelayCycles(12000000u); /* WCO may take up to 500ms to start */
 220:Generated_Source\PSoC4/cyfitter_cfg.c **** 
 221:Generated_Source\PSoC4/cyfitter_cfg.c **** 	/* Setup and trim IMO based on desired frequency. */
 222:Generated_Source\PSoC4/cyfitter_cfg.c **** 	CySysClkWriteImoFreq(48u);
 223:Generated_Source\PSoC4/cyfitter_cfg.c **** 	CySysClkImoEnableWcoLock();
 224:Generated_Source\PSoC4/cyfitter_cfg.c **** 	/* CYDEV_CLK_ILO_CONFIG Starting address: CYDEV_CLK_ILO_CONFIG */
 225:Generated_Source\PSoC4/cyfitter_cfg.c **** 	CY_SET_REG32((void *)(CYREG_CLK_ILO_CONFIG), 0x80000006u);
 226:Generated_Source\PSoC4/cyfitter_cfg.c **** 
 227:Generated_Source\PSoC4/cyfitter_cfg.c **** 	/* CYDEV_WDT_CONFIG Starting address: CYDEV_WDT_CONFIG */
 228:Generated_Source\PSoC4/cyfitter_cfg.c **** 	CY_SET_REG32((void *)(CYREG_WDT_CONFIG), 0x40000000u);
 229:Generated_Source\PSoC4/cyfitter_cfg.c **** 
 230:Generated_Source\PSoC4/cyfitter_cfg.c **** 
 231:Generated_Source\PSoC4/cyfitter_cfg.c **** 	/* Setup phase aligned clocks */
 232:Generated_Source\PSoC4/cyfitter_cfg.c **** 	CY_SET_REG32((void *)CYREG_PERI_DIV_16_CTL2, 0x00BB7F00u);
 233:Generated_Source\PSoC4/cyfitter_cfg.c **** 	CY_SET_REG32((void *)CYREG_PERI_DIV_CMD, 0x8000FF42u);
 234:Generated_Source\PSoC4/cyfitter_cfg.c **** 	CY_SET_REG32((void *)CYREG_PERI_DIV_16_CTL1, 0x00002200u);
 235:Generated_Source\PSoC4/cyfitter_cfg.c **** 	CY_SET_REG32((void *)CYREG_PERI_DIV_CMD, 0x8000FF41u);
 236:Generated_Source\PSoC4/cyfitter_cfg.c **** 	CY_SET_REG32((void *)CYREG_PERI_DIV_16_CTL0, 0x00001D00u);
ARM GAS  C:\Users\labview\AppData\Local\Temp\ccp5vw6t.s 			page 7


 237:Generated_Source\PSoC4/cyfitter_cfg.c **** 	CY_SET_REG32((void *)CYREG_PERI_DIV_CMD, 0x8000FF40u);
 238:Generated_Source\PSoC4/cyfitter_cfg.c **** 
 239:Generated_Source\PSoC4/cyfitter_cfg.c **** 	/* CYDEV_CLK_IMO_CONFIG Starting address: CYDEV_CLK_IMO_CONFIG */
 240:Generated_Source\PSoC4/cyfitter_cfg.c **** 	CY_SET_REG32((void *)(CYREG_CLK_IMO_CONFIG), 0x80000000u);
 241:Generated_Source\PSoC4/cyfitter_cfg.c **** 
 242:Generated_Source\PSoC4/cyfitter_cfg.c **** 	/* CYDEV_CLK_SELECT Starting address: CYDEV_CLK_SELECT */
 243:Generated_Source\PSoC4/cyfitter_cfg.c **** 	CY_SET_REG32((void *)(CYREG_CLK_SELECT), 0x00040000u);
 244:Generated_Source\PSoC4/cyfitter_cfg.c **** 
 245:Generated_Source\PSoC4/cyfitter_cfg.c **** 	/* CYDEV_PERI_PCLK_CTL19 Starting address: CYDEV_PERI_PCLK_CTL19 */
 246:Generated_Source\PSoC4/cyfitter_cfg.c **** 	CY_SET_REG32((void *)(CYREG_PERI_PCLK_CTL19), 0x00000042u);
 247:Generated_Source\PSoC4/cyfitter_cfg.c **** 
 248:Generated_Source\PSoC4/cyfitter_cfg.c **** 	/* CYDEV_PERI_PCLK_CTL5 Starting address: CYDEV_PERI_PCLK_CTL5 */
 249:Generated_Source\PSoC4/cyfitter_cfg.c **** 	CY_SET_REG32((void *)(CYREG_PERI_PCLK_CTL5), 0x00000041u);
 250:Generated_Source\PSoC4/cyfitter_cfg.c **** 
 251:Generated_Source\PSoC4/cyfitter_cfg.c **** 	/* CYDEV_PERI_PCLK_CTL2 Starting address: CYDEV_PERI_PCLK_CTL2 */
 252:Generated_Source\PSoC4/cyfitter_cfg.c **** 	CY_SET_REG32((void *)(CYREG_PERI_PCLK_CTL2), 0x00000040u);
 253:Generated_Source\PSoC4/cyfitter_cfg.c **** 
 254:Generated_Source\PSoC4/cyfitter_cfg.c **** 	(void)CyIntSetVector(7u, &CySysWdtIsr);
 255:Generated_Source\PSoC4/cyfitter_cfg.c **** 	CyIntEnable(7u);
 256:Generated_Source\PSoC4/cyfitter_cfg.c **** 	CY_SET_REG32((void *)(CYREG_WDT_CONFIG), 0x40000000u);
 257:Generated_Source\PSoC4/cyfitter_cfg.c **** }
 258:Generated_Source\PSoC4/cyfitter_cfg.c **** 
 259:Generated_Source\PSoC4/cyfitter_cfg.c **** 
 260:Generated_Source\PSoC4/cyfitter_cfg.c **** /* Analog API Functions */
 261:Generated_Source\PSoC4/cyfitter_cfg.c **** 
 262:Generated_Source\PSoC4/cyfitter_cfg.c **** 
 263:Generated_Source\PSoC4/cyfitter_cfg.c **** /*******************************************************************************
 264:Generated_Source\PSoC4/cyfitter_cfg.c **** * Function Name: AnalogSetDefault
 265:Generated_Source\PSoC4/cyfitter_cfg.c **** ********************************************************************************
 266:Generated_Source\PSoC4/cyfitter_cfg.c **** *
 267:Generated_Source\PSoC4/cyfitter_cfg.c **** * Summary:
 268:Generated_Source\PSoC4/cyfitter_cfg.c **** *  Sets up the analog portions of the chip to default values based on chip
 269:Generated_Source\PSoC4/cyfitter_cfg.c **** *  configuration options from the project.
 270:Generated_Source\PSoC4/cyfitter_cfg.c **** *
 271:Generated_Source\PSoC4/cyfitter_cfg.c **** * Parameters:
 272:Generated_Source\PSoC4/cyfitter_cfg.c **** *  void
 273:Generated_Source\PSoC4/cyfitter_cfg.c **** *
 274:Generated_Source\PSoC4/cyfitter_cfg.c **** * Return:
 275:Generated_Source\PSoC4/cyfitter_cfg.c **** *  void
 276:Generated_Source\PSoC4/cyfitter_cfg.c **** *
 277:Generated_Source\PSoC4/cyfitter_cfg.c **** *******************************************************************************/
 278:Generated_Source\PSoC4/cyfitter_cfg.c **** static void AnalogSetDefault(void);
 279:Generated_Source\PSoC4/cyfitter_cfg.c **** static void AnalogSetDefault(void)
 280:Generated_Source\PSoC4/cyfitter_cfg.c **** {
 104              		.loc 1 280 0
 105              		.cfi_startproc
 106              		@ args = 0, pretend = 0, frame = 0
 107              		@ frame_needed = 0, uses_anonymous_args = 0
 108              		@ link register save eliminated.
 281:Generated_Source\PSoC4/cyfitter_cfg.c **** 	CY_SET_XTND_REG32((void CYFAR *)CYREG_CTBM0_DFT_CTRL, 0x00000003u);
 109              		.loc 1 281 0
 110 0000 0323     		movs	r3, #3
 111 0002 044A     		ldr	r2, .L7
 112 0004 1360     		str	r3, [r2]
 282:Generated_Source\PSoC4/cyfitter_cfg.c **** 	CY_SET_XTND_REG32((void CYFAR *)CYREG_CTBM1_DFT_CTRL, 0x00000003u);
 113              		.loc 1 282 0
 114 0006 044A     		ldr	r2, .L7+4
ARM GAS  C:\Users\labview\AppData\Local\Temp\ccp5vw6t.s 			page 8


 115 0008 1360     		str	r3, [r2]
 283:Generated_Source\PSoC4/cyfitter_cfg.c **** 	CY_SET_XTND_REG32((void CYFAR *)CYREG_PASS_DSAB_DSAB_CTRL, 0x00000000u);
 116              		.loc 1 283 0
 117 000a 0022     		movs	r2, #0
 118 000c 034B     		ldr	r3, .L7+8
 119 000e 1A60     		str	r2, [r3]
 284:Generated_Source\PSoC4/cyfitter_cfg.c **** }
 120              		.loc 1 284 0
 121              		@ sp needed
 122 0010 7047     		bx	lr
 123              	.L8:
 124 0012 C046     		.align	2
 125              	.L7:
 126 0014 30003040 		.word	1076887600
 127 0018 30003140 		.word	1076953136
 128 001c 000E3F40 		.word	1077874176
 129              		.cfi_endproc
 130              	.LFE6:
 131              		.size	AnalogSetDefault, .-AnalogSetDefault
 132              		.section	.text.CYMEMZERO,"ax",%progbits
 133              		.align	2
 134              		.code	16
 135              		.thumb_func
 136              		.type	CYMEMZERO, %function
 137              	CYMEMZERO:
 138              	.LFB1:
  77:Generated_Source\PSoC4/cyfitter_cfg.c **** 	(void)memset(s, 0, n);
 139              		.loc 1 77 0
 140              		.cfi_startproc
 141              		@ args = 0, pretend = 0, frame = 0
 142              		@ frame_needed = 0, uses_anonymous_args = 0
 143              	.LVL12:
 144 0000 10B5     		push	{r4, lr}
 145              		.cfi_def_cfa_offset 8
 146              		.cfi_offset 4, -8
 147              		.cfi_offset 14, -4
 148 0002 0A00     		movs	r2, r1
  78:Generated_Source\PSoC4/cyfitter_cfg.c **** }
 149              		.loc 1 78 0
 150 0004 0021     		movs	r1, #0
 151              	.LVL13:
 152 0006 FFF7FEFF 		bl	memset
 153              	.LVL14:
  79:Generated_Source\PSoC4/cyfitter_cfg.c **** CY_CFG_UNUSED
 154              		.loc 1 79 0
 155              		@ sp needed
 156 000a 10BD     		pop	{r4, pc}
 157              		.cfi_endproc
 158              	.LFE1:
 159              		.size	CYMEMZERO, .-CYMEMZERO
 160              		.section	.psocinit,"ax",%progbits
 161              		.align	2
 162              		.code	16
 163              		.thumb_func
 164              		.type	ClockSetup, %function
 165              	ClockSetup:
 166              	.LFB5:
ARM GAS  C:\Users\labview\AppData\Local\Temp\ccp5vw6t.s 			page 9


 212:Generated_Source\PSoC4/cyfitter_cfg.c **** 
 167              		.loc 1 212 0
 168              		.cfi_startproc
 169              		@ args = 0, pretend = 0, frame = 0
 170              		@ frame_needed = 0, uses_anonymous_args = 0
 171 0000 70B5     		push	{r4, r5, r6, lr}
 172              		.cfi_def_cfa_offset 16
 173              		.cfi_offset 4, -16
 174              		.cfi_offset 5, -12
 175              		.cfi_offset 6, -8
 176              		.cfi_offset 14, -4
 215:Generated_Source\PSoC4/cyfitter_cfg.c **** 
 177              		.loc 1 215 0
 178 0002 1222     		movs	r2, #18
 179 0004 1F4B     		ldr	r3, .L11
 180 0006 1A60     		str	r2, [r3]
 218:Generated_Source\PSoC4/cyfitter_cfg.c **** 	CyDelayCycles(12000000u); /* WCO may take up to 500ms to start */
 181              		.loc 1 218 0
 182 0008 FFF7FEFF 		bl	CySysClkWcoStart
 183              	.LVL15:
 219:Generated_Source\PSoC4/cyfitter_cfg.c **** 
 184              		.loc 1 219 0
 185 000c 1E48     		ldr	r0, .L11+4
 186 000e FFF7FEFF 		bl	CyDelayCycles
 187              	.LVL16:
 222:Generated_Source\PSoC4/cyfitter_cfg.c **** 	CySysClkImoEnableWcoLock();
 188              		.loc 1 222 0
 189 0012 3020     		movs	r0, #48
 190 0014 FFF7FEFF 		bl	CySysClkWriteImoFreq
 191              	.LVL17:
 223:Generated_Source\PSoC4/cyfitter_cfg.c **** 	/* CYDEV_CLK_ILO_CONFIG Starting address: CYDEV_CLK_ILO_CONFIG */
 192              		.loc 1 223 0
 193 0018 FFF7FEFF 		bl	CySysClkImoEnableWcoLock
 194              	.LVL18:
 225:Generated_Source\PSoC4/cyfitter_cfg.c **** 
 195              		.loc 1 225 0
 196 001c 1B4A     		ldr	r2, .L11+8
 197 001e 1C4B     		ldr	r3, .L11+12
 198 0020 1A60     		str	r2, [r3]
 228:Generated_Source\PSoC4/cyfitter_cfg.c **** 
 199              		.loc 1 228 0
 200 0022 1C4C     		ldr	r4, .L11+16
 201 0024 8025     		movs	r5, #128
 202 0026 ED05     		lsls	r5, r5, #23
 203 0028 2560     		str	r5, [r4]
 232:Generated_Source\PSoC4/cyfitter_cfg.c **** 	CY_SET_REG32((void *)CYREG_PERI_DIV_CMD, 0x8000FF42u);
 204              		.loc 1 232 0
 205 002a 1B4A     		ldr	r2, .L11+20
 206 002c 1B4B     		ldr	r3, .L11+24
 207 002e 1A60     		str	r2, [r3]
 233:Generated_Source\PSoC4/cyfitter_cfg.c **** 	CY_SET_REG32((void *)CYREG_PERI_DIV_16_CTL1, 0x00002200u);
 208              		.loc 1 233 0
 209 0030 1B4B     		ldr	r3, .L11+28
 210 0032 1C4A     		ldr	r2, .L11+32
 211 0034 1A60     		str	r2, [r3]
 234:Generated_Source\PSoC4/cyfitter_cfg.c **** 	CY_SET_REG32((void *)CYREG_PERI_DIV_CMD, 0x8000FF41u);
 212              		.loc 1 234 0
ARM GAS  C:\Users\labview\AppData\Local\Temp\ccp5vw6t.s 			page 10


 213 0036 8821     		movs	r1, #136
 214 0038 8901     		lsls	r1, r1, #6
 215 003a 1B4A     		ldr	r2, .L11+36
 216 003c 1160     		str	r1, [r2]
 235:Generated_Source\PSoC4/cyfitter_cfg.c **** 	CY_SET_REG32((void *)CYREG_PERI_DIV_16_CTL0, 0x00001D00u);
 217              		.loc 1 235 0
 218 003e 1B4A     		ldr	r2, .L11+40
 219 0040 1A60     		str	r2, [r3]
 236:Generated_Source\PSoC4/cyfitter_cfg.c **** 	CY_SET_REG32((void *)CYREG_PERI_DIV_CMD, 0x8000FF40u);
 220              		.loc 1 236 0
 221 0042 E821     		movs	r1, #232
 222 0044 4901     		lsls	r1, r1, #5
 223 0046 1A4A     		ldr	r2, .L11+44
 224 0048 1160     		str	r1, [r2]
 237:Generated_Source\PSoC4/cyfitter_cfg.c **** 
 225              		.loc 1 237 0
 226 004a 1A4A     		ldr	r2, .L11+48
 227 004c 1A60     		str	r2, [r3]
 240:Generated_Source\PSoC4/cyfitter_cfg.c **** 
 228              		.loc 1 240 0
 229 004e 8022     		movs	r2, #128
 230 0050 1206     		lsls	r2, r2, #24
 231 0052 194B     		ldr	r3, .L11+52
 232 0054 1A60     		str	r2, [r3]
 243:Generated_Source\PSoC4/cyfitter_cfg.c **** 
 233              		.loc 1 243 0
 234 0056 8022     		movs	r2, #128
 235 0058 D202     		lsls	r2, r2, #11
 236 005a 184B     		ldr	r3, .L11+56
 237 005c 1A60     		str	r2, [r3]
 246:Generated_Source\PSoC4/cyfitter_cfg.c **** 
 238              		.loc 1 246 0
 239 005e 4222     		movs	r2, #66
 240 0060 174B     		ldr	r3, .L11+60
 241 0062 1A60     		str	r2, [r3]
 249:Generated_Source\PSoC4/cyfitter_cfg.c **** 
 242              		.loc 1 249 0
 243 0064 013A     		subs	r2, r2, #1
 244 0066 174B     		ldr	r3, .L11+64
 245 0068 1A60     		str	r2, [r3]
 252:Generated_Source\PSoC4/cyfitter_cfg.c **** 
 246              		.loc 1 252 0
 247 006a 013A     		subs	r2, r2, #1
 248 006c 164B     		ldr	r3, .L11+68
 249 006e 1A60     		str	r2, [r3]
 254:Generated_Source\PSoC4/cyfitter_cfg.c **** 	CyIntEnable(7u);
 250              		.loc 1 254 0
 251 0070 1649     		ldr	r1, .L11+72
 252 0072 0720     		movs	r0, #7
 253 0074 FFF7FEFF 		bl	CyIntSetVector
 254              	.LVL19:
 255:Generated_Source\PSoC4/cyfitter_cfg.c **** 	CY_SET_REG32((void *)(CYREG_WDT_CONFIG), 0x40000000u);
 255              		.loc 1 255 0
 256 0078 0720     		movs	r0, #7
 257 007a FFF7FEFF 		bl	CyIntEnable
 258              	.LVL20:
 256:Generated_Source\PSoC4/cyfitter_cfg.c **** }
ARM GAS  C:\Users\labview\AppData\Local\Temp\ccp5vw6t.s 			page 11


 259              		.loc 1 256 0
 260 007e 2560     		str	r5, [r4]
 257:Generated_Source\PSoC4/cyfitter_cfg.c **** 
 261              		.loc 1 257 0
 262              		@ sp needed
 263 0080 70BD     		pop	{r4, r5, r6, pc}
 264              	.L12:
 265 0082 C046     		.align	2
 266              	.L11:
 267 0084 30001040 		.word	1074790448
 268 0088 001BB700 		.word	12000000
 269 008c 06000080 		.word	-2147483642
 270 0090 04010B40 		.word	1074462980
 271 0094 0C020B40 		.word	1074463244
 272 0098 007FBB00 		.word	12287744
 273 009c 08030140 		.word	1073808136
 274 00a0 00000140 		.word	1073807360
 275 00a4 42FF0080 		.word	-2147418302
 276 00a8 04030140 		.word	1073808132
 277 00ac 41FF0080 		.word	-2147418303
 278 00b0 00030140 		.word	1073808128
 279 00b4 40FF0080 		.word	-2147418304
 280 00b8 08010B40 		.word	1074462984
 281 00bc 00010B40 		.word	1074462976
 282 00c0 4C010140 		.word	1073807692
 283 00c4 14010140 		.word	1073807636
 284 00c8 08010140 		.word	1073807624
 285 00cc 00000000 		.word	CySysWdtIsr
 286              		.cfi_endproc
 287              	.LFE5:
 288              		.size	ClockSetup, .-ClockSetup
 289              		.align	2
 290              		.global	cyfitter_cfg
 291              		.code	16
 292              		.thumb_func
 293              		.type	cyfitter_cfg, %function
 294              	cyfitter_cfg:
 295              	.LFB7:
 285:Generated_Source\PSoC4/cyfitter_cfg.c **** 
 286:Generated_Source\PSoC4/cyfitter_cfg.c **** 
 287:Generated_Source\PSoC4/cyfitter_cfg.c **** 
 288:Generated_Source\PSoC4/cyfitter_cfg.c **** 
 289:Generated_Source\PSoC4/cyfitter_cfg.c **** /*******************************************************************************
 290:Generated_Source\PSoC4/cyfitter_cfg.c **** * Function Name: cyfitter_cfg
 291:Generated_Source\PSoC4/cyfitter_cfg.c **** ********************************************************************************
 292:Generated_Source\PSoC4/cyfitter_cfg.c **** * Summary:
 293:Generated_Source\PSoC4/cyfitter_cfg.c **** *  This function is called by the start-up code for the selected device. It
 294:Generated_Source\PSoC4/cyfitter_cfg.c **** *  performs all of the necessary device configuration based on the design
 295:Generated_Source\PSoC4/cyfitter_cfg.c **** *  settings.  This includes settings from the Design Wide Resources (DWR) such
 296:Generated_Source\PSoC4/cyfitter_cfg.c **** *  as Clocks and Pins as well as any component configuration that is necessary.
 297:Generated_Source\PSoC4/cyfitter_cfg.c **** *
 298:Generated_Source\PSoC4/cyfitter_cfg.c **** * Parameters:
 299:Generated_Source\PSoC4/cyfitter_cfg.c **** *   void
 300:Generated_Source\PSoC4/cyfitter_cfg.c **** *
 301:Generated_Source\PSoC4/cyfitter_cfg.c **** * Return:
 302:Generated_Source\PSoC4/cyfitter_cfg.c **** *   void
 303:Generated_Source\PSoC4/cyfitter_cfg.c **** *
ARM GAS  C:\Users\labview\AppData\Local\Temp\ccp5vw6t.s 			page 12


 304:Generated_Source\PSoC4/cyfitter_cfg.c **** *******************************************************************************/
 305:Generated_Source\PSoC4/cyfitter_cfg.c **** CY_CFG_SECTION
 306:Generated_Source\PSoC4/cyfitter_cfg.c **** void cyfitter_cfg(void)
 307:Generated_Source\PSoC4/cyfitter_cfg.c **** {
 296              		.loc 1 307 0
 297              		.cfi_startproc
 298              		@ args = 0, pretend = 0, frame = 0
 299              		@ frame_needed = 0, uses_anonymous_args = 0
 300 00d0 10B5     		push	{r4, lr}
 301              		.cfi_def_cfa_offset 8
 302              		.cfi_offset 4, -8
 303              		.cfi_offset 14, -4
 308:Generated_Source\PSoC4/cyfitter_cfg.c **** 	/* Disable interrupts by default. Let user enable if/when they want. */
 309:Generated_Source\PSoC4/cyfitter_cfg.c **** 	CyGlobalIntDisable;
 304              		.loc 1 309 0
 305              		.syntax divided
 306              	@ 309 "Generated_Source\PSoC4\cyfitter_cfg.c" 1
 307 00d2 72B6     		CPSID   i
 308              	@ 0 "" 2
 310:Generated_Source\PSoC4/cyfitter_cfg.c **** 
 311:Generated_Source\PSoC4/cyfitter_cfg.c **** 	/* Enable the clock in the interrupt controller for the routed interrupts */
 312:Generated_Source\PSoC4/cyfitter_cfg.c **** 	CY_SET_REG8((void *)CYREG_UDB_UDBIF_INT_CLK_CTL, 0x01u);
 309              		.loc 1 312 0
 310              		.thumb
 311              		.syntax unified
 312 00d4 0122     		movs	r2, #1
 313 00d6 2C4B     		ldr	r3, .L16
 314 00d8 1A70     		strb	r2, [r3]
 315              	.LVL21:
 316              	.LBB3:
 313:Generated_Source\PSoC4/cyfitter_cfg.c **** 	{
 314:Generated_Source\PSoC4/cyfitter_cfg.c **** 		static const uint32 CYCODE cy_cfg_addr_table[] = {
 315:Generated_Source\PSoC4/cyfitter_cfg.c **** 			0x400F0001u, /* Base address: 0x400F0000 Count: 1 */
 316:Generated_Source\PSoC4/cyfitter_cfg.c **** 			0x400F3230u, /* Base address: 0x400F3200 Count: 48 */
 317:Generated_Source\PSoC4/cyfitter_cfg.c **** 			0x400F3314u, /* Base address: 0x400F3300 Count: 20 */
 318:Generated_Source\PSoC4/cyfitter_cfg.c **** 			0x400F4002u, /* Base address: 0x400F4000 Count: 2 */
 319:Generated_Source\PSoC4/cyfitter_cfg.c **** 			0x400F4103u, /* Base address: 0x400F4100 Count: 3 */
 320:Generated_Source\PSoC4/cyfitter_cfg.c **** 			0x400F6002u, /* Base address: 0x400F6000 Count: 2 */
 321:Generated_Source\PSoC4/cyfitter_cfg.c **** 		};
 322:Generated_Source\PSoC4/cyfitter_cfg.c **** 
 323:Generated_Source\PSoC4/cyfitter_cfg.c **** 		static const cy_cfg_addrvalue_t CYCODE cy_cfg_data_table[] = {
 324:Generated_Source\PSoC4/cyfitter_cfg.c **** 			{0x83u, 0x0Du},
 325:Generated_Source\PSoC4/cyfitter_cfg.c **** 			{0x40u, 0x45u},
 326:Generated_Source\PSoC4/cyfitter_cfg.c **** 			{0x49u, 0xFFu},
 327:Generated_Source\PSoC4/cyfitter_cfg.c **** 			{0x4Au, 0xFFu},
 328:Generated_Source\PSoC4/cyfitter_cfg.c **** 			{0x4Bu, 0xFFu},
 329:Generated_Source\PSoC4/cyfitter_cfg.c **** 			{0x4Fu, 0x01u},
 330:Generated_Source\PSoC4/cyfitter_cfg.c **** 			{0x50u, 0x18u},
 331:Generated_Source\PSoC4/cyfitter_cfg.c **** 			{0x5Au, 0x04u},
 332:Generated_Source\PSoC4/cyfitter_cfg.c **** 			{0x5Fu, 0x01u},
 333:Generated_Source\PSoC4/cyfitter_cfg.c **** 			{0x60u, 0x40u},
 334:Generated_Source\PSoC4/cyfitter_cfg.c **** 			{0x62u, 0x40u},
 335:Generated_Source\PSoC4/cyfitter_cfg.c **** 			{0x64u, 0x40u},
 336:Generated_Source\PSoC4/cyfitter_cfg.c **** 			{0x65u, 0x40u},
 337:Generated_Source\PSoC4/cyfitter_cfg.c **** 			{0x66u, 0x80u},
 338:Generated_Source\PSoC4/cyfitter_cfg.c **** 			{0x68u, 0x80u},
 339:Generated_Source\PSoC4/cyfitter_cfg.c **** 			{0x6Au, 0x80u},
ARM GAS  C:\Users\labview\AppData\Local\Temp\ccp5vw6t.s 			page 13


 340:Generated_Source\PSoC4/cyfitter_cfg.c **** 			{0x6Cu, 0x80u},
 341:Generated_Source\PSoC4/cyfitter_cfg.c **** 			{0x6Eu, 0x80u},
 342:Generated_Source\PSoC4/cyfitter_cfg.c **** 			{0x8Eu, 0x01u},
 343:Generated_Source\PSoC4/cyfitter_cfg.c **** 			{0x92u, 0x01u},
 344:Generated_Source\PSoC4/cyfitter_cfg.c **** 			{0xB2u, 0x01u},
 345:Generated_Source\PSoC4/cyfitter_cfg.c **** 			{0xB6u, 0x01u},
 346:Generated_Source\PSoC4/cyfitter_cfg.c **** 			{0xBEu, 0x40u},
 347:Generated_Source\PSoC4/cyfitter_cfg.c **** 			{0xC0u, 0x54u},
 348:Generated_Source\PSoC4/cyfitter_cfg.c **** 			{0xC5u, 0xECu},
 349:Generated_Source\PSoC4/cyfitter_cfg.c **** 			{0xC7u, 0x20u},
 350:Generated_Source\PSoC4/cyfitter_cfg.c **** 			{0xC8u, 0x23u},
 351:Generated_Source\PSoC4/cyfitter_cfg.c **** 			{0xC9u, 0xFFu},
 352:Generated_Source\PSoC4/cyfitter_cfg.c **** 			{0xCAu, 0xFFu},
 353:Generated_Source\PSoC4/cyfitter_cfg.c **** 			{0xCBu, 0xFFu},
 354:Generated_Source\PSoC4/cyfitter_cfg.c **** 			{0xCDu, 0x83u},
 355:Generated_Source\PSoC4/cyfitter_cfg.c **** 			{0xCEu, 0x03u},
 356:Generated_Source\PSoC4/cyfitter_cfg.c **** 			{0xCFu, 0x01u},
 357:Generated_Source\PSoC4/cyfitter_cfg.c **** 			{0xD0u, 0x18u},
 358:Generated_Source\PSoC4/cyfitter_cfg.c **** 			{0xD2u, 0x80u},
 359:Generated_Source\PSoC4/cyfitter_cfg.c **** 			{0xD4u, 0x01u},
 360:Generated_Source\PSoC4/cyfitter_cfg.c **** 			{0xD8u, 0x04u},
 361:Generated_Source\PSoC4/cyfitter_cfg.c **** 			{0xDAu, 0x04u},
 362:Generated_Source\PSoC4/cyfitter_cfg.c **** 			{0xDBu, 0x04u},
 363:Generated_Source\PSoC4/cyfitter_cfg.c **** 			{0xDFu, 0x01u},
 364:Generated_Source\PSoC4/cyfitter_cfg.c **** 			{0xE0u, 0x40u},
 365:Generated_Source\PSoC4/cyfitter_cfg.c **** 			{0xE2u, 0x40u},
 366:Generated_Source\PSoC4/cyfitter_cfg.c **** 			{0xE4u, 0x40u},
 367:Generated_Source\PSoC4/cyfitter_cfg.c **** 			{0xE5u, 0x40u},
 368:Generated_Source\PSoC4/cyfitter_cfg.c **** 			{0xE6u, 0x80u},
 369:Generated_Source\PSoC4/cyfitter_cfg.c **** 			{0xE8u, 0x80u},
 370:Generated_Source\PSoC4/cyfitter_cfg.c **** 			{0xEAu, 0x80u},
 371:Generated_Source\PSoC4/cyfitter_cfg.c **** 			{0xECu, 0x80u},
 372:Generated_Source\PSoC4/cyfitter_cfg.c **** 			{0xEEu, 0x80u},
 373:Generated_Source\PSoC4/cyfitter_cfg.c **** 			{0x02u, 0x02u},
 374:Generated_Source\PSoC4/cyfitter_cfg.c **** 			{0x0Bu, 0x40u},
 375:Generated_Source\PSoC4/cyfitter_cfg.c **** 			{0x18u, 0x20u},
 376:Generated_Source\PSoC4/cyfitter_cfg.c **** 			{0x19u, 0x40u},
 377:Generated_Source\PSoC4/cyfitter_cfg.c **** 			{0x41u, 0x01u},
 378:Generated_Source\PSoC4/cyfitter_cfg.c **** 			{0x46u, 0x80u},
 379:Generated_Source\PSoC4/cyfitter_cfg.c **** 			{0x49u, 0x05u},
 380:Generated_Source\PSoC4/cyfitter_cfg.c **** 			{0x4Bu, 0x40u},
 381:Generated_Source\PSoC4/cyfitter_cfg.c **** 			{0x4Eu, 0x02u},
 382:Generated_Source\PSoC4/cyfitter_cfg.c **** 			{0x51u, 0x01u},
 383:Generated_Source\PSoC4/cyfitter_cfg.c **** 			{0x52u, 0x02u},
 384:Generated_Source\PSoC4/cyfitter_cfg.c **** 			{0x59u, 0x45u},
 385:Generated_Source\PSoC4/cyfitter_cfg.c **** 			{0x72u, 0x80u},
 386:Generated_Source\PSoC4/cyfitter_cfg.c **** 			{0x73u, 0x40u},
 387:Generated_Source\PSoC4/cyfitter_cfg.c **** 			{0x80u, 0x10u},
 388:Generated_Source\PSoC4/cyfitter_cfg.c **** 			{0xC0u, 0x01u},
 389:Generated_Source\PSoC4/cyfitter_cfg.c **** 			{0xC2u, 0x08u},
 390:Generated_Source\PSoC4/cyfitter_cfg.c **** 			{0xD0u, 0x81u},
 391:Generated_Source\PSoC4/cyfitter_cfg.c **** 			{0xD2u, 0x18u},
 392:Generated_Source\PSoC4/cyfitter_cfg.c **** 			{0xD6u, 0x0Bu},
 393:Generated_Source\PSoC4/cyfitter_cfg.c **** 			{0x6Bu, 0x10u},
 394:Generated_Source\PSoC4/cyfitter_cfg.c **** 			{0xDAu, 0x40u},
 395:Generated_Source\PSoC4/cyfitter_cfg.c **** 			{0x83u, 0x10u},
 396:Generated_Source\PSoC4/cyfitter_cfg.c **** 			{0x9Fu, 0x10u},
ARM GAS  C:\Users\labview\AppData\Local\Temp\ccp5vw6t.s 			page 14


 397:Generated_Source\PSoC4/cyfitter_cfg.c **** 			{0xE2u, 0x20u},
 398:Generated_Source\PSoC4/cyfitter_cfg.c **** 			{0x01u, 0x01u},
 399:Generated_Source\PSoC4/cyfitter_cfg.c **** 			{0x10u, 0x01u},
 400:Generated_Source\PSoC4/cyfitter_cfg.c **** 		};
 401:Generated_Source\PSoC4/cyfitter_cfg.c **** 
 402:Generated_Source\PSoC4/cyfitter_cfg.c **** 
 403:Generated_Source\PSoC4/cyfitter_cfg.c **** 
 404:Generated_Source\PSoC4/cyfitter_cfg.c **** 		CYPACKED typedef struct {
 405:Generated_Source\PSoC4/cyfitter_cfg.c **** 			void CYFAR *address;
 406:Generated_Source\PSoC4/cyfitter_cfg.c **** 			uint16 size;
 407:Generated_Source\PSoC4/cyfitter_cfg.c **** 		} CYPACKED_ATTR cfg_memset_t;
 408:Generated_Source\PSoC4/cyfitter_cfg.c **** 
 409:Generated_Source\PSoC4/cyfitter_cfg.c **** 		static const cfg_memset_t CYCODE cfg_memset_list[] = {
 410:Generated_Source\PSoC4/cyfitter_cfg.c **** 			/* address, size */
 411:Generated_Source\PSoC4/cyfitter_cfg.c **** 			{(void CYFAR *)(CYDEV_UDB_P0_U0_BASE), 1024u},
 412:Generated_Source\PSoC4/cyfitter_cfg.c **** 			{(void CYFAR *)(CYDEV_UDB_DSI0_BASE), 1024u},
 413:Generated_Source\PSoC4/cyfitter_cfg.c **** 		};
 414:Generated_Source\PSoC4/cyfitter_cfg.c **** 
 415:Generated_Source\PSoC4/cyfitter_cfg.c **** 		uint8 CYDATA i;
 416:Generated_Source\PSoC4/cyfitter_cfg.c **** 
 417:Generated_Source\PSoC4/cyfitter_cfg.c **** 		/* Zero out critical memory blocks before beginning configuration */
 418:Generated_Source\PSoC4/cyfitter_cfg.c **** 		for (i = 0u; i < (sizeof(cfg_memset_list)/sizeof(cfg_memset_list[0])); i++)
 317              		.loc 1 418 0
 318 00da 0024     		movs	r4, #0
 319 00dc 0FE0     		b	.L14
 320              	.LVL22:
 321              	.L15:
 322              	.LBB4:
 419:Generated_Source\PSoC4/cyfitter_cfg.c **** 		{
 420:Generated_Source\PSoC4/cyfitter_cfg.c **** 			const cfg_memset_t CYCODE * CYDATA ms = &cfg_memset_list[i];
 421:Generated_Source\PSoC4/cyfitter_cfg.c **** 			CYMEMZERO(ms->address, (size_t)(uint32)(ms->size));
 323              		.loc 1 421 0 discriminator 3
 324 00de 2B48     		ldr	r0, .L16+4
 325 00e0 6200     		lsls	r2, r4, #1
 326 00e2 1319     		adds	r3, r2, r4
 327 00e4 5900     		lsls	r1, r3, #1
 328 00e6 0B00     		movs	r3, r1
 329 00e8 4118     		adds	r1, r0, r1
 330 00ea 8988     		ldrh	r1, [r1, #4]
 331 00ec 1A5A     		ldrh	r2, [r3, r0]
 332 00ee C318     		adds	r3, r0, r3
 333 00f0 5888     		ldrh	r0, [r3, #2]
 334 00f2 0004     		lsls	r0, r0, #16
 335 00f4 1043     		orrs	r0, r2
 336 00f6 FFF7FEFF 		bl	CYMEMZERO
 337              	.LVL23:
 338              	.LBE4:
 418:Generated_Source\PSoC4/cyfitter_cfg.c **** 		{
 339              		.loc 1 418 0 discriminator 3
 340 00fa 0134     		adds	r4, r4, #1
 341              	.LVL24:
 342 00fc E4B2     		uxtb	r4, r4
 343              	.LVL25:
 344              	.L14:
 418:Generated_Source\PSoC4/cyfitter_cfg.c **** 		{
 345              		.loc 1 418 0 is_stmt 0 discriminator 1
 346 00fe 012C     		cmp	r4, #1
ARM GAS  C:\Users\labview\AppData\Local\Temp\ccp5vw6t.s 			page 15


 347 0100 EDD9     		bls	.L15
 422:Generated_Source\PSoC4/cyfitter_cfg.c **** 		}
 423:Generated_Source\PSoC4/cyfitter_cfg.c **** 
 424:Generated_Source\PSoC4/cyfitter_cfg.c **** 		cfg_write_bytes32(cy_cfg_addr_table, cy_cfg_data_table);
 348              		.loc 1 424 0 is_stmt 1
 349 0102 2249     		ldr	r1, .L16+4
 350 0104 0C31     		adds	r1, r1, #12
 351 0106 2248     		ldr	r0, .L16+8
 352 0108 2430     		adds	r0, r0, #36
 353 010a FFF7FEFF 		bl	cfg_write_bytes32
 354              	.LVL26:
 425:Generated_Source\PSoC4/cyfitter_cfg.c **** 
 426:Generated_Source\PSoC4/cyfitter_cfg.c **** 		/* HSIOM Starting address: CYDEV_HSIOM_BASE */
 427:Generated_Source\PSoC4/cyfitter_cfg.c **** 		CY_SET_REG32((void *)(CYREG_HSIOM_PORT_SEL3), 0x0000EE00u);
 355              		.loc 1 427 0
 356 010e EE22     		movs	r2, #238
 357 0110 1202     		lsls	r2, r2, #8
 358 0112 204B     		ldr	r3, .L16+12
 359 0114 1A60     		str	r2, [r3]
 428:Generated_Source\PSoC4/cyfitter_cfg.c **** 		CY_SET_REG32((void *)(CYREG_HSIOM_PORT_SEL4), 0x000000EEu);
 360              		.loc 1 428 0
 361 0116 EE22     		movs	r2, #238
 362 0118 1F4B     		ldr	r3, .L16+16
 363 011a 1A60     		str	r2, [r3]
 429:Generated_Source\PSoC4/cyfitter_cfg.c **** 		CY_SET_REG32((void *)(CYREG_HSIOM_PORT_SEL6), 0x00000009u);
 364              		.loc 1 429 0
 365 011c E53A     		subs	r2, r2, #229
 366 011e 1F4B     		ldr	r3, .L16+20
 367 0120 1A60     		str	r2, [r3]
 430:Generated_Source\PSoC4/cyfitter_cfg.c **** 		CY_SET_REG32((void *)(CYREG_HSIOM_PORT_SEL7), 0x00000090u);
 368              		.loc 1 430 0
 369 0122 8732     		adds	r2, r2, #135
 370 0124 1E4B     		ldr	r3, .L16+24
 371 0126 1A60     		str	r2, [r3]
 431:Generated_Source\PSoC4/cyfitter_cfg.c **** 
 432:Generated_Source\PSoC4/cyfitter_cfg.c **** 		/* UDB_PA_3 Starting address: CYDEV_UDB_PA3_BASE */
 433:Generated_Source\PSoC4/cyfitter_cfg.c **** 		CY_SET_REG32((void *)(CYDEV_UDB_PA3_BASE), 0x00990000u);
 372              		.loc 1 433 0
 373 0128 9922     		movs	r2, #153
 374 012a 1204     		lsls	r2, r2, #16
 375 012c 1D4B     		ldr	r3, .L16+28
 376 012e 1A60     		str	r2, [r3]
 434:Generated_Source\PSoC4/cyfitter_cfg.c **** 
 435:Generated_Source\PSoC4/cyfitter_cfg.c **** 		/* INT_SELECT Starting address: CYDEV_CPUSS_INT_SEL */
 436:Generated_Source\PSoC4/cyfitter_cfg.c **** 		CY_SET_REG32((void *)(CYREG_CPUSS_INT_SEL), 0x00000001u);
 377              		.loc 1 436 0
 378 0130 0121     		movs	r1, #1
 379 0132 1D4B     		ldr	r3, .L16+32
 380 0134 1960     		str	r1, [r3]
 437:Generated_Source\PSoC4/cyfitter_cfg.c **** 
 438:Generated_Source\PSoC4/cyfitter_cfg.c **** 		/* INT_CONFIG Starting address: CYDEV_UDB_INT_CFG */
 439:Generated_Source\PSoC4/cyfitter_cfg.c **** 		CY_SET_REG32((void *)(CYREG_UDB_INT_CFG), 0x00000001u);
 381              		.loc 1 439 0
 382 0136 1D4B     		ldr	r3, .L16+36
 383 0138 1960     		str	r1, [r3]
 440:Generated_Source\PSoC4/cyfitter_cfg.c **** 
 441:Generated_Source\PSoC4/cyfitter_cfg.c **** 		/* Enable UDB array and digital routing */
ARM GAS  C:\Users\labview\AppData\Local\Temp\ccp5vw6t.s 			page 16


 442:Generated_Source\PSoC4/cyfitter_cfg.c **** 		CY_SET_XTND_REG8((void *)CYREG_UDB_UDBIF_WAIT_CFG, (uint8)((CY_GET_XTND_REG8((void *)CYREG_UDB_UD
 384              		.loc 1 442 0
 385 013a 1D48     		ldr	r0, .L16+40
 386 013c 0378     		ldrb	r3, [r0]
 387 013e 3C22     		movs	r2, #60
 388 0140 9343     		bics	r3, r2
 389 0142 1422     		movs	r2, #20
 390 0144 1343     		orrs	r3, r2
 391 0146 DBB2     		uxtb	r3, r3
 392 0148 0370     		strb	r3, [r0]
 443:Generated_Source\PSoC4/cyfitter_cfg.c **** 		CY_SET_XTND_REG8((void *)CYREG_UDB_UDBIF_BANK_CTL, (uint8)(CY_GET_XTND_REG8((void *)CYREG_UDB_UDB
 393              		.loc 1 443 0
 394 014a 1A4A     		ldr	r2, .L16+44
 395 014c 1078     		ldrb	r0, [r2]
 396 014e 1623     		movs	r3, #22
 397 0150 0343     		orrs	r3, r0
 398 0152 DBB2     		uxtb	r3, r3
 399 0154 1370     		strb	r3, [r2]
 400              	.LBE3:
 444:Generated_Source\PSoC4/cyfitter_cfg.c **** 	}
 445:Generated_Source\PSoC4/cyfitter_cfg.c **** 
 446:Generated_Source\PSoC4/cyfitter_cfg.c **** 	/* Perform second pass device configuration. These items must be configured in specific order afte
 447:Generated_Source\PSoC4/cyfitter_cfg.c **** 	/* IOPINS0_3 Starting address: CYDEV_GPIO_PRT3_BASE */
 448:Generated_Source\PSoC4/cyfitter_cfg.c **** 	CY_SET_REG32((void *)(CYREG_GPIO_PRT3_PC), 0x00000D80u);
 401              		.loc 1 448 0
 402 0156 D822     		movs	r2, #216
 403 0158 1201     		lsls	r2, r2, #4
 404 015a 174B     		ldr	r3, .L16+48
 405 015c 1A60     		str	r2, [r3]
 449:Generated_Source\PSoC4/cyfitter_cfg.c **** 
 450:Generated_Source\PSoC4/cyfitter_cfg.c **** 	/* IOPINS0_4 Starting address: CYDEV_GPIO_PRT4_BASE */
 451:Generated_Source\PSoC4/cyfitter_cfg.c **** 	CY_SET_REG32((void *)(CYDEV_GPIO_PRT4_BASE), 0x00000003u);
 406              		.loc 1 451 0
 407 015e 0322     		movs	r2, #3
 408 0160 164B     		ldr	r3, .L16+52
 409 0162 1A60     		str	r2, [r3]
 452:Generated_Source\PSoC4/cyfitter_cfg.c **** 	CY_SET_REG32((void *)(CYREG_GPIO_PRT4_PC), 0x00000024u);
 410              		.loc 1 452 0
 411 0164 2132     		adds	r2, r2, #33
 412 0166 164B     		ldr	r3, .L16+56
 413 0168 1A60     		str	r2, [r3]
 453:Generated_Source\PSoC4/cyfitter_cfg.c **** 
 454:Generated_Source\PSoC4/cyfitter_cfg.c **** 	/* IOPINS0_6 Starting address: CYDEV_GPIO_PRT6_BASE */
 455:Generated_Source\PSoC4/cyfitter_cfg.c **** 	CY_SET_REG32((void *)(CYREG_GPIO_PRT6_PC), 0x00000001u);
 414              		.loc 1 455 0
 415 016a 164B     		ldr	r3, .L16+60
 416 016c 1960     		str	r1, [r3]
 456:Generated_Source\PSoC4/cyfitter_cfg.c **** 
 457:Generated_Source\PSoC4/cyfitter_cfg.c **** 	/* IOPINS0_7 Starting address: CYDEV_GPIO_PRT7_BASE */
 458:Generated_Source\PSoC4/cyfitter_cfg.c **** 	CY_SET_REG32((void *)(CYDEV_GPIO_PRT7_BASE), 0x00000002u);
 417              		.loc 1 458 0
 418 016e 0223     		movs	r3, #2
 419 0170 154A     		ldr	r2, .L16+64
 420 0172 1360     		str	r3, [r2]
 459:Generated_Source\PSoC4/cyfitter_cfg.c **** 	CY_SET_REG32((void *)(CYREG_GPIO_PRT7_PC), 0x00000030u);
 421              		.loc 1 459 0
 422 0174 2F31     		adds	r1, r1, #47
ARM GAS  C:\Users\labview\AppData\Local\Temp\ccp5vw6t.s 			page 17


 423 0176 154A     		ldr	r2, .L16+68
 424 0178 1160     		str	r1, [r2]
 460:Generated_Source\PSoC4/cyfitter_cfg.c **** 	CY_SET_REG32((void *)(CYREG_GPIO_PRT7_PC2), 0x00000002u);
 425              		.loc 1 460 0
 426 017a 154A     		ldr	r2, .L16+72
 427 017c 1360     		str	r3, [r2]
 461:Generated_Source\PSoC4/cyfitter_cfg.c **** 
 462:Generated_Source\PSoC4/cyfitter_cfg.c **** 
 463:Generated_Source\PSoC4/cyfitter_cfg.c **** 	/* Setup clocks based on selections from Clock DWR */
 464:Generated_Source\PSoC4/cyfitter_cfg.c **** 	ClockSetup();
 428              		.loc 1 464 0
 429 017e FFF73FFF 		bl	ClockSetup
 430              	.LVL27:
 465:Generated_Source\PSoC4/cyfitter_cfg.c **** 
 466:Generated_Source\PSoC4/cyfitter_cfg.c **** 	/* Perform basic analog initialization to defaults */
 467:Generated_Source\PSoC4/cyfitter_cfg.c **** 	AnalogSetDefault();
 431              		.loc 1 467 0
 432 0182 FFF7FEFF 		bl	AnalogSetDefault
 433              	.LVL28:
 468:Generated_Source\PSoC4/cyfitter_cfg.c **** 
 469:Generated_Source\PSoC4/cyfitter_cfg.c **** }
 434              		.loc 1 469 0
 435              		@ sp needed
 436              	.LVL29:
 437 0186 10BD     		pop	{r4, pc}
 438              	.L17:
 439              		.align	2
 440              	.L16:
 441 0188 1C700F40 		.word	1074753564
 442 018c 00000000 		.word	.LANCHOR0
 443 0190 80000000 		.word	.LANCHOR1
 444 0194 00030240 		.word	1073873664
 445 0198 00040240 		.word	1073873920
 446 019c 00060240 		.word	1073874432
 447 01a0 00070240 		.word	1073874688
 448 01a4 30500F40 		.word	1074745392
 449 01a8 20001040 		.word	1074790432
 450 01ac 00800F40 		.word	1074757632
 451 01b0 01700F40 		.word	1074753537
 452 01b4 00700F40 		.word	1074753536
 453 01b8 08030440 		.word	1074004744
 454 01bc 00040440 		.word	1074004992
 455 01c0 08040440 		.word	1074005000
 456 01c4 08060440 		.word	1074005512
 457 01c8 00070440 		.word	1074005760
 458 01cc 08070440 		.word	1074005768
 459 01d0 18070440 		.word	1074005784
 460              		.cfi_endproc
 461              	.LFE7:
 462              		.size	cyfitter_cfg, .-cyfitter_cfg
 463              		.section	.rodata
 464              		.align	2
 465              		.set	.LANCHOR0,. + 0
 466              		.set	.LANCHOR1,. + 128
 467              		.type	cfg_memset_list.4911, %object
 468              		.size	cfg_memset_list.4911, 12
 469              	cfg_memset_list.4911:
ARM GAS  C:\Users\labview\AppData\Local\Temp\ccp5vw6t.s 			page 18


 470 0000 00300F40 		.word	1074737152
 471 0004 0004     		.short	1024
 472 0006 00400F40 		.4byte	1074741248
 473 000a 0004     		.short	1024
 474              		.type	cy_cfg_data_table.4906, %object
 475              		.size	cy_cfg_data_table.4906, 152
 476              	cy_cfg_data_table.4906:
 477 000c 83       		.byte	-125
 478 000d 0D       		.byte	13
 479 000e 40       		.byte	64
 480 000f 45       		.byte	69
 481 0010 49       		.byte	73
 482 0011 FF       		.byte	-1
 483 0012 4A       		.byte	74
 484 0013 FF       		.byte	-1
 485 0014 4B       		.byte	75
 486 0015 FF       		.byte	-1
 487 0016 4F       		.byte	79
 488 0017 01       		.byte	1
 489 0018 50       		.byte	80
 490 0019 18       		.byte	24
 491 001a 5A       		.byte	90
 492 001b 04       		.byte	4
 493 001c 5F       		.byte	95
 494 001d 01       		.byte	1
 495 001e 60       		.byte	96
 496 001f 40       		.byte	64
 497 0020 62       		.byte	98
 498 0021 40       		.byte	64
 499 0022 64       		.byte	100
 500 0023 40       		.byte	64
 501 0024 65       		.byte	101
 502 0025 40       		.byte	64
 503 0026 66       		.byte	102
 504 0027 80       		.byte	-128
 505 0028 68       		.byte	104
 506 0029 80       		.byte	-128
 507 002a 6A       		.byte	106
 508 002b 80       		.byte	-128
 509 002c 6C       		.byte	108
 510 002d 80       		.byte	-128
 511 002e 6E       		.byte	110
 512 002f 80       		.byte	-128
 513 0030 8E       		.byte	-114
 514 0031 01       		.byte	1
 515 0032 92       		.byte	-110
 516 0033 01       		.byte	1
 517 0034 B2       		.byte	-78
 518 0035 01       		.byte	1
 519 0036 B6       		.byte	-74
 520 0037 01       		.byte	1
 521 0038 BE       		.byte	-66
 522 0039 40       		.byte	64
 523 003a C0       		.byte	-64
 524 003b 54       		.byte	84
 525 003c C5       		.byte	-59
 526 003d EC       		.byte	-20
ARM GAS  C:\Users\labview\AppData\Local\Temp\ccp5vw6t.s 			page 19


 527 003e C7       		.byte	-57
 528 003f 20       		.byte	32
 529 0040 C8       		.byte	-56
 530 0041 23       		.byte	35
 531 0042 C9       		.byte	-55
 532 0043 FF       		.byte	-1
 533 0044 CA       		.byte	-54
 534 0045 FF       		.byte	-1
 535 0046 CB       		.byte	-53
 536 0047 FF       		.byte	-1
 537 0048 CD       		.byte	-51
 538 0049 83       		.byte	-125
 539 004a CE       		.byte	-50
 540 004b 03       		.byte	3
 541 004c CF       		.byte	-49
 542 004d 01       		.byte	1
 543 004e D0       		.byte	-48
 544 004f 18       		.byte	24
 545 0050 D2       		.byte	-46
 546 0051 80       		.byte	-128
 547 0052 D4       		.byte	-44
 548 0053 01       		.byte	1
 549 0054 D8       		.byte	-40
 550 0055 04       		.byte	4
 551 0056 DA       		.byte	-38
 552 0057 04       		.byte	4
 553 0058 DB       		.byte	-37
 554 0059 04       		.byte	4
 555 005a DF       		.byte	-33
 556 005b 01       		.byte	1
 557 005c E0       		.byte	-32
 558 005d 40       		.byte	64
 559 005e E2       		.byte	-30
 560 005f 40       		.byte	64
 561 0060 E4       		.byte	-28
 562 0061 40       		.byte	64
 563 0062 E5       		.byte	-27
 564 0063 40       		.byte	64
 565 0064 E6       		.byte	-26
 566 0065 80       		.byte	-128
 567 0066 E8       		.byte	-24
 568 0067 80       		.byte	-128
 569 0068 EA       		.byte	-22
 570 0069 80       		.byte	-128
 571 006a EC       		.byte	-20
 572 006b 80       		.byte	-128
 573 006c EE       		.byte	-18
 574 006d 80       		.byte	-128
 575 006e 02       		.byte	2
 576 006f 02       		.byte	2
 577 0070 0B       		.byte	11
 578 0071 40       		.byte	64
 579 0072 18       		.byte	24
 580 0073 20       		.byte	32
 581 0074 19       		.byte	25
 582 0075 40       		.byte	64
 583 0076 41       		.byte	65
ARM GAS  C:\Users\labview\AppData\Local\Temp\ccp5vw6t.s 			page 20


 584 0077 01       		.byte	1
 585 0078 46       		.byte	70
 586 0079 80       		.byte	-128
 587 007a 49       		.byte	73
 588 007b 05       		.byte	5
 589 007c 4B       		.byte	75
 590 007d 40       		.byte	64
 591 007e 4E       		.byte	78
 592 007f 02       		.byte	2
 593 0080 51       		.byte	81
 594 0081 01       		.byte	1
 595 0082 52       		.byte	82
 596 0083 02       		.byte	2
 597 0084 59       		.byte	89
 598 0085 45       		.byte	69
 599 0086 72       		.byte	114
 600 0087 80       		.byte	-128
 601 0088 73       		.byte	115
 602 0089 40       		.byte	64
 603 008a 80       		.byte	-128
 604 008b 10       		.byte	16
 605 008c C0       		.byte	-64
 606 008d 01       		.byte	1
 607 008e C2       		.byte	-62
 608 008f 08       		.byte	8
 609 0090 D0       		.byte	-48
 610 0091 81       		.byte	-127
 611 0092 D2       		.byte	-46
 612 0093 18       		.byte	24
 613 0094 D6       		.byte	-42
 614 0095 0B       		.byte	11
 615 0096 6B       		.byte	107
 616 0097 10       		.byte	16
 617 0098 DA       		.byte	-38
 618 0099 40       		.byte	64
 619 009a 83       		.byte	-125
 620 009b 10       		.byte	16
 621 009c 9F       		.byte	-97
 622 009d 10       		.byte	16
 623 009e E2       		.byte	-30
 624 009f 20       		.byte	32
 625 00a0 01       		.byte	1
 626 00a1 01       		.byte	1
 627 00a2 10       		.byte	16
 628 00a3 01       		.byte	1
 629              		.type	cy_cfg_addr_table.4905, %object
 630              		.size	cy_cfg_addr_table.4905, 24
 631              	cy_cfg_addr_table.4905:
 632 00a4 01000F40 		.word	1074724865
 633 00a8 30320F40 		.word	1074737712
 634 00ac 14330F40 		.word	1074737940
 635 00b0 02400F40 		.word	1074741250
 636 00b4 03410F40 		.word	1074741507
 637 00b8 02600F40 		.word	1074749442
 638              		.text
 639              	.Letext0:
 640              		.file 2 "c:\\program files (x86)\\cypress\\psoc creator\\4.4\\psoc creator\\import\\gnu\\arm\\5.4.
ARM GAS  C:\Users\labview\AppData\Local\Temp\ccp5vw6t.s 			page 21


 641              		.file 3 "Generated_Source\\PSoC4\\cytypes.h"
 642              		.file 4 "Generated_Source\\PSoC4\\CyLFClk.h"
 643              		.file 5 "Generated_Source\\PSoC4\\CyLib.h"